Archive member included to satisfy reference by file (symbol)

c:/program files/microchip/xc32/v4.00/bin/bin/../../lib/gcc/pic32c/8.3.1/../../../../pic32c/lib/thumb/v7e-m+dp/hard\libpic32c.a(data_init.o)
                              build/sam_v71_xult/production/_ext/1320227943/startup_xc32.o (__pic32c_data_initialization)
c:/program files/microchip/xc32/v4.00/bin/bin/../../lib/gcc/pic32c/8.3.1/../../../../pic32c/lib/thumb/v7e-m+dp/hard\libc-musl.a(__libc_start_main.o)
                              build/sam_v71_xult/production/_ext/1320227943/startup_xc32.o (__libc_init_array)
c:/program files/microchip/xc32/v4.00/bin/bin/../../lib/gcc/pic32c/8.3.1/../../../../pic32c/lib/thumb/v7e-m+dp/hard\libc-musl.a(libc.o)
                              c:/program files/microchip/xc32/v4.00/bin/bin/../../lib/gcc/pic32c/8.3.1/../../../../pic32c/lib/thumb/v7e-m+dp/hard\libc-musl.a(__libc_start_main.o) (__progname_full)
c:/program files/microchip/xc32/v4.00/bin/bin/../../lib/gcc/pic32c/8.3.1/../../../../pic32c/lib/thumb/v7e-m+dp/hard\libc-musl.a(__sio_sprintf_doux.o)
                              (_sprintf_cdnopuxX)
c:/program files/microchip/xc32/v4.00/bin/bin/../../lib/gcc/pic32c/8.3.1/../../../../pic32c/lib/thumb/v7e-m+dp/hard\libc-musl.a(__fmt_d.o)
                              c:/program files/microchip/xc32/v4.00/bin/bin/../../lib/gcc/pic32c/8.3.1/../../../../pic32c/lib/thumb/v7e-m+dp/hard\libc-musl.a(__sio_sprintf_doux.o) (__fmt_d_needed)
c:/program files/microchip/xc32/v4.00/bin/bin/../../lib/gcc/pic32c/8.3.1/../../../../pic32c/lib/thumb/v7e-m+dp/hard\libc-musl.a(__fmt_o.o)
                              c:/program files/microchip/xc32/v4.00/bin/bin/../../lib/gcc/pic32c/8.3.1/../../../../pic32c/lib/thumb/v7e-m+dp/hard\libc-musl.a(__sio_sprintf_doux.o) (__fmt_o_needed)
c:/program files/microchip/xc32/v4.00/bin/bin/../../lib/gcc/pic32c/8.3.1/../../../../pic32c/lib/thumb/v7e-m+dp/hard\libc-musl.a(__fmt_s.o)
                              c:/program files/microchip/xc32/v4.00/bin/bin/../../lib/gcc/pic32c/8.3.1/../../../../pic32c/lib/thumb/v7e-m+dp/hard\libc-musl.a(__sio_sprintf_doux.o) (__fmt_s_needed)
c:/program files/microchip/xc32/v4.00/bin/bin/../../lib/gcc/pic32c/8.3.1/../../../../pic32c/lib/thumb/v7e-m+dp/hard\libc-musl.a(__fmt_u.o)
                              c:/program files/microchip/xc32/v4.00/bin/bin/../../lib/gcc/pic32c/8.3.1/../../../../pic32c/lib/thumb/v7e-m+dp/hard\libc-musl.a(__fmt_d.o) (__cvt_u)
c:/program files/microchip/xc32/v4.00/bin/bin/../../lib/gcc/pic32c/8.3.1/../../../../pic32c/lib/thumb/v7e-m+dp/hard\libc-musl.a(__fmt_x.o)
                              c:/program files/microchip/xc32/v4.00/bin/bin/../../lib/gcc/pic32c/8.3.1/../../../../pic32c/lib/thumb/v7e-m+dp/hard\libc-musl.a(__sio_sprintf_doux.o) (__fmt_x_needed)
c:/program files/microchip/xc32/v4.00/bin/bin/../../lib/gcc/pic32c/8.3.1/../../../../pic32c/lib/thumb/v7e-m+dp/hard\libc-musl.a(__printf_core.o)
                              c:/program files/microchip/xc32/v4.00/bin/bin/../../lib/gcc/pic32c/8.3.1/../../../../pic32c/lib/thumb/v7e-m+dp/hard\libc-musl.a(__fmt_d.o) (__pad)
c:/program files/microchip/xc32/v4.00/bin/bin/../../lib/gcc/pic32c/8.3.1/../../../../pic32c/lib/thumb/v7e-m+dp/hard\libc-musl.a(atoi.o)
                              c:/program files/microchip/xc32/v4.00/bin/bin/../../lib/gcc/pic32c/8.3.1/../../../../pic32c/lib/thumb/v7e-m+dp/hard\libc-musl.a(__printf_core.o) (atoi)
c:/program files/microchip/xc32/v4.00/bin/bin/../../lib/gcc/pic32c/8.3.1/../../../../pic32c/lib/thumb/v7e-m+dp/hard\libc-musl.a(memcpy.o)
                              build/sam_v71_xult/production/_ext/1157988489/plib_efc.o (memcpy)
c:/program files/microchip/xc32/v4.00/bin/bin/../../lib/gcc/pic32c/8.3.1/../../../../pic32c/lib/thumb/v7e-m+dp/hard\libc-musl.a(memset.o)
                              build/sam_v71_xult/production/_ext/1537669298/plib_mcan1.o (memset)
c:/program files/microchip/xc32/v4.00/bin/bin/../../lib/gcc/pic32c/8.3.1/../../../../pic32c/lib/thumb/v7e-m+dp/hard\libc-musl.a(strlen.o)
                              build/sam_v71_xult/production/_ext/1522961716/Uart1_FreeRTOS.o (strlen)
c:/program files/microchip/xc32/v4.00/bin/bin/../../lib/gcc/pic32c/8.3.1/../../../../pic32c/lib/thumb/v7e-m+dp/hard\libc-musl.a(tolower.o)
                              c:/program files/microchip/xc32/v4.00/bin/bin/../../lib/gcc/pic32c/8.3.1/../../../../pic32c/lib/thumb/v7e-m+dp/hard\libc-musl.a(__printf_core.o) (tolower)
c:/program files/microchip/xc32/v4.00/bin/bin/../../lib/gcc/pic32c/8.3.1/../../../../pic32c/lib/thumb/v7e-m+dp/hard\libc-musl.a(toupper.o)
                              c:/program files/microchip/xc32/v4.00/bin/bin/../../lib/gcc/pic32c/8.3.1/../../../../pic32c/lib/thumb/v7e-m+dp/hard\libc-musl.a(__fmt_x.o) (toupper)
c:/program files/microchip/xc32/v4.00/bin/bin/../../lib/gcc/pic32c/8.3.1/../../../../pic32c/lib/thumb/v7e-m+dp/hard\libc-musl.a(__environ.o)
                              c:/program files/microchip/xc32/v4.00/bin/bin/../../lib/gcc/pic32c/8.3.1/../../../../pic32c/lib/thumb/v7e-m+dp/hard\libc-musl.a(__libc_start_main.o) (__environ)
c:/program files/microchip/xc32/v4.00/bin/bin/../../lib/gcc/pic32c/8.3.1/../../../../pic32c/lib/thumb/v7e-m+dp/hard\libc-musl.a(__errno_location.o)
                              c:/program files/microchip/xc32/v4.00/bin/bin/../../lib/gcc/pic32c/8.3.1/../../../../pic32c/lib/thumb/v7e-m+dp/hard\libc-musl.a(__printf_core.o) (__errno_val)
c:/program files/microchip/xc32/v4.00/bin/bin/../../lib/gcc/pic32c/8.3.1/../../../../pic32c/lib/thumb/v7e-m+dp/hard\libc-musl.a(__int_vsprintf.o)
                              c:/program files/microchip/xc32/v4.00/bin/bin/../../lib/gcc/pic32c/8.3.1/../../../../pic32c/lib/thumb/v7e-m+dp/hard\libc-musl.a(__sio_sprintf_doux.o) (__vsprintf)
c:/program files/microchip/xc32/v4.00/bin/bin/../../lib/gcc/pic32c/8.3.1/../../../../pic32c/lib/thumb/v7e-m+dp/hard\libc-musl.a(__pop_float.o)
                              c:/program files/microchip/xc32/v4.00/bin/bin/../../lib/gcc/pic32c/8.3.1/../../../../pic32c/lib/thumb/v7e-m+dp/hard\libc-musl.a(__printf_core.o) (__pop_float)
c:/program files/microchip/xc32/v4.00/bin/bin/../../lib/gcc/pic32c/8.3.1/../../../../pic32c/lib/thumb/v7e-m+dp/hard\libc-musl.a(__pop_int.o)
                              c:/program files/microchip/xc32/v4.00/bin/bin/../../lib/gcc/pic32c/8.3.1/../../../../pic32c/lib/thumb/v7e-m+dp/hard\libc-musl.a(__printf_core.o) (__pop_int)
c:/program files/microchip/xc32/v4.00/bin/bin/../../lib/gcc/pic32c/8.3.1/../../../../pic32c/lib/thumb/v7e-m+dp/hard\libc-musl.a(__pop_ptr.o)
                              c:/program files/microchip/xc32/v4.00/bin/bin/../../lib/gcc/pic32c/8.3.1/../../../../pic32c/lib/thumb/v7e-m+dp/hard\libc-musl.a(__printf_core.o) (__pop_ptr)
c:/program files/microchip/xc32/v4.00/bin/bin/../../lib/gcc/pic32c/8.3.1/../../../../pic32c/lib/thumb/v7e-m+dp/hard\libc-musl.a(__int_vsnprintf.o)
                              c:/program files/microchip/xc32/v4.00/bin/bin/../../lib/gcc/pic32c/8.3.1/../../../../pic32c/lib/thumb/v7e-m+dp/hard\libc-musl.a(__int_vsprintf.o) (__vsnprintf)
c:/program files/microchip/xc32/v4.00/bin/bin/../../lib/gcc/pic32c/8.3.1/../../../../pic32c/lib/thumb/v7e-m+dp/hard\libc-musl.a(__int_vfprintf.o)
                              c:/program files/microchip/xc32/v4.00/bin/bin/../../lib/gcc/pic32c/8.3.1/../../../../pic32c/lib/thumb/v7e-m+dp/hard\libc-musl.a(__int_vsnprintf.o) (__vfprintf)
c:/program files/microchip/xc32/v4.00/bin/bin/../../lib/gcc/pic32c/8.3.1/thumb/v7e-m+dp/hard\libgcc.a(_aeabi_uldivmod.o)
                              c:/program files/microchip/xc32/v4.00/bin/bin/../../lib/gcc/pic32c/8.3.1/../../../../pic32c/lib/thumb/v7e-m+dp/hard\libc-musl.a(__fmt_u.o) (__aeabi_uldivmod)
c:/program files/microchip/xc32/v4.00/bin/bin/../../lib/gcc/pic32c/8.3.1/thumb/v7e-m+dp/hard\libgcc.a(_udivmoddi4.o)
                              c:/program files/microchip/xc32/v4.00/bin/bin/../../lib/gcc/pic32c/8.3.1/thumb/v7e-m+dp/hard\libgcc.a(_aeabi_uldivmod.o) (__udivmoddi4)
c:/program files/microchip/xc32/v4.00/bin/bin/../../lib/gcc/pic32c/8.3.1/thumb/v7e-m+dp/hard\libgcc.a(_dvmd_tls.o)
                              c:/program files/microchip/xc32/v4.00/bin/bin/../../lib/gcc/pic32c/8.3.1/thumb/v7e-m+dp/hard\libgcc.a(_aeabi_uldivmod.o) (__aeabi_ldiv0)

Microchip PIC32 Memory-Usage Report

ROM Program-Memory Usage
section                    address  length [bytes]      (dec)  Description
-------                 ----------  -------------------------  -----------
.vectors                  0x400000          0x168         360   
.text                     0x400168           0x20          32  App's exec code 
.ARM.exidx                0x400188            0x8           8   
.dinit                    0x400190          0x430        1072   
.text.MCAN1_INT0_Interr   0x4005c0          0x3bc         956   
.text.__printf_core       0x40097c          0x2f4         756   
.text                     0x400c70          0x2d0         720  App's exec code 
.text.xTaskCreate         0x400f40          0x1d8         472   
.text.USART1_InterruptH   0x401118          0x17c         380   
.text.Reset_Handler       0x401294          0x17c         380   
.text.xQueueSemaphoreTa   0x401410          0x158         344   
.text.xQueueGenericSend   0x401568          0x128         296   
.rodata                   0x401690          0x124         292  Read-only const 
.text.__fmt_x             0x4017b4          0x124         292   
.text.TAREA_PRINCIPAL_T   0x4018d8          0x120         288   
.text.MCAN1_MessageTran   0x4019f8          0x114         276   
.text.xTaskIncrementTic   0x401b0c          0x114         276   
.text.MCAN1_MessageRAMC   0x401c20          0x10c         268   
.text.xTaskResumeAll      0x401d2c           0xe4         228   
.text.MCAN1_MessageRece   0x401e10           0xd0         208   
.text.PIO_Initialize      0x401ee0           0xd0         208   
.text.vTaskDelete         0x401fb0           0xcc         204   
.text.TAREA_Can           0x40207c           0xc0         192   
.text.xTaskPriorityInhe   0x40213c           0xa8         168   
.text.__fmt_d             0x4021e4           0xa8         168   
.text.MCAN1_Initialize    0x40228c           0xa4         164   
.text.USART1_Write        0x402330           0xa4         164   
.text.__pop_int           0x4023d4           0xa0         160   
.text.prvAddCurrentTask   0x402474           0x94         148   
.text.vTaskSwitchContex   0x402508           0x90         144   
.text.CLOCK_Initialize    0x402598           0x8c         140   
.text.__pic32c_data_ini   0x402624           0x88         136   
.text.vTaskPriorityDisi   0x4026ac           0x80         128   
.text.prvUnlockQueue      0x40272c           0x7e         126   
.text.__pad               0x4027aa           0x7e         126   
.text.xTaskPriorityDisi   0x402828           0x7c         124   
.text.TAREA_Can2          0x4028a4           0x7c         124   
.text.__pop_ptr           0x402920           0x7c         124   
.text.xTaskRemoveFromEv   0x40299c           0x78         120   
.text.TAREA_Can1          0x402a14           0x78         120   
.text.__cvt_u             0x402a8c           0x78         120   
.text.prvCopyDataToQueu   0x402b04           0x72         114   
.text.__fmt_o             0x402b76           0x72         114   
.text.xQueueGenericRese   0x402be8           0x70         112   
.text.prvIdleTask         0x402c58           0x70         112   
.text.vTaskStartSchedul   0x402cc8           0x68         104   
.text.xPortPendSVHandle   0x402d30           0x64         100   
.text.xQueueGiveFromISR   0x402d94           0x64         100   
.text.TAREA_UART_Tasks    0x402df8           0x60          96   
.text.USART1_Initialize   0x402e58           0x5c          92   
.text.pvPortMalloc        0x402eb4           0x5c          92   
.text.xTaskCheckForTime   0x402f10           0x5c          92   
.text.__libc_start_init   0x402f6c           0x5c          92   
.text.USART1_Read         0x402fc8           0x58          88   
.text.__fmt_s             0x403020           0x58          88   
.text.__fmt_u             0x403078           0x56          86   
.text.Dummy_Handler       0x4030ce            0x2           2   
.text.mcan_fd_interrupt   0x4030d0           0x54          84   
.text.Uart1_FreeRTOS_Co   0x403124           0x54          84   
.text.__vsnprintf         0x403178           0x50          80   
.text.xPortStartSchedul   0x4031c8           0x48          72   
.text.mcan_fd_interrupt   0x403210           0x48          72   
.text.atoi                0x403258           0x46          70   
.text.NonMaskableInt_Ha   0x40329e            0x2           2   
.text                     0x4032a0           0x40          64  App's exec code 
.text.NVIC_Initialize     0x4032e0           0x40          64   
.text.Resultado           0x403320           0x3c          60   
.text.Uart1_println       0x40335c           0x3c          60   
.text.MCAN1_ErrorGet      0x403398           0x38          56   
.text.MPU_Initialize      0x4033d0           0x38          56   
.text.__fmt_state         0x403408           0x38          56   
.text.vListInsert         0x403440           0x34          52   
.text.vTaskDelay          0x403474           0x34          52   
.text.APP_MCAN_Callback   0x4034a8           0x34          52   
.text.uartReadEventHand   0x4034dc           0x34          52   
.rodata                   0x403510           0x34          52  Read-only const 
.text.SYS_Initialize      0x403544           0x30          48   
.text.SYS_Tasks           0x403574           0x30          48   
.text.xPortSysTickHandl   0x4035a4           0x30          48   
.text.xQueueGenericCrea   0x4035d4           0x30          48   
.text.TAREA_PRINCIPAL_I   0x403604           0x30          48   
.text.Uart1_print         0x403634           0x30          48   
.text                     0x403664           0x30          48  App's exec code 
.text.pxPortInitialiseS   0x403694           0x2c          44   
.text.prvResetNextTaskU   0x4036c0           0x2c          44   
.text.__pop_float         0x4036ec           0x2a          42   
.text.HardFault_Handler   0x403716            0x2           2   
.text.prvPortStartFirst   0x403718           0x28          40   
.text.vPortSetupTimerIn   0x403740           0x28          40   
.text.uxListRemove        0x403768           0x26          38   
.text.__string_out        0x40378e           0x26          38   
.text.MCANDlcToLengthGe   0x4037b4           0x24          36   
.text.prvTaskExitError    0x4037d8           0x24          36   
.text.__dummy_fmt4        0x4037fc            0x4           4   
.text.vPortSVCHandler     0x403800           0x24          36   
.text.vPortEnterCritica   0x403824           0x24          36   
.text.xQueueCreateMutex   0x403848           0x24          36   
.text.MCAN1_RxCallbackR   0x40386c           0x1c          28   
.text.USART1_WritePendi   0x403888           0x1c          28   
.text.USART1_ReadCountG   0x4038a4           0x1c          28   
.text.vTaskPlaceOnEvent   0x4038c0           0x1c          28   
.text.pvTaskIncrementMu   0x4038dc           0x1c          28   
.rodata                   0x4038f8           0x1c          28  Read-only const 
.text.__vfprintf          0x403914           0x1c          28   
.text.__wrap_sprintf      0x403930           0x1a          26   
.text.DebugMonitor_Hand   0x40394a            0x2           2   
.text.USART1_ReadNotifi   0x40394c           0x18          24   
.rodata                   0x403964           0x18          24  Read-only const 
.text.vTaskInternalSetT   0x40397c           0x18          24   
.text.vApplicationStack   0x403994           0x16          22   
.text.vListInitialise     0x4039aa           0x16          22   
.text.vListInsertEnd      0x4039c0           0x16          22   
.text.prvIsQueueEmpty     0x4039d6           0x16          22   
.text.memcpy              0x4039ec           0x16          22   
.text.MemoryManagement_   0x403a02            0x2           2   
.text.USART1_WriteFreeB   0x403a04           0x14          20   
.text.vPortEnableVFP      0x403a18           0x14          20   
.text.vPortExitCritical   0x403a2c           0x14          20   
.text.EFC_Initialize      0x403a40           0x10          16   
.text.MCAN1_TxCallbackR   0x403a50           0x10          16   
.rodata                   0x403a60           0x10          16  Read-only const 
.rodata.mcan1ExtFilter    0x403a70           0x10          16   
.text.vTaskSuspendAll     0x403a80           0x10          16   
.text.Uart1_Recibir       0x403a90           0x10          16   
.text.memset              0x403aa0           0x10          16   
.text.strlen              0x403ab0           0x10          16   
.text.main                0x403ac0            0xe          14   
.text.tolower             0x403ace            0xe          14   
.text.toupper             0x403adc            0xe          14   
.text.BusFault_Handler    0x403aea            0x2           2   
.text.USART1_ReadThresh   0x403aec            0xc          12   
.text.USART1_ReadCallba   0x403af8            0xc          12   
.text.vTaskMissedYield    0x403b04            0xc          12   
.text.mcan_fd_interrupt   0x403b10            0xc          12   
.text.__vsprintf          0x403b1c            0xc          12   
.rodata.mcan1StdFilter    0x403b28            0x8           8   
.text._TAREA_PRINCIPAL_   0x403b30            0x8           8   
.rodata                   0x403b38            0x8           8  Read-only const 
.text.mcan_fd_interrupt   0x403b40            0x8           8   
.rodata                   0x403b48            0x7           7  Read-only const 
.text.vListInitialiseIt   0x403b50            0x6           6   
.text.UsageFault_Handle   0x403b56            0x2           2   
.text                     0x403b58            0x4           4  App's exec code 
.text.Dummy_App_Func      0x403b5c            0x2           2   
.text.vPortFree           0x403b5e            0x2           2   
.text.__dummy             0x403b60            0x2           2   
      Total ROM used  :      0x3b61       15201  0.7% of 0x200000
        --------------------------------------------------------------------------
         Total Program Memory used  :      0x3b61       15201  0.7% of 0x200000
        --------------------------------------------------------------------------


RAM Data-Memory Usage
section                    address  length [bytes]      (dec)  Description
-------                 ----------  -------------------------  -----------
.bss.ucHeap             0x20400000         0xa000       40960   
.ram_nocache.Can1Messag 0x2040a000          0x140         320   
.bss.USART1_ReadBuffer  0x2040a140           0x80         128   
.bss.USART1_WriteBuffer 0x2040a1c0           0x80         128   
.bss.pxReadyTasksLists  0x2040a240           0x64         100   
.bss                    0x2040a2a4           0x50          80  Uninitialized data 
.bss.usart1Obj          0x2040a2f4           0x40          64   
.bss.message.9604       0x2040a334           0x40          64   
.bss.rx_message         0x2040a374           0x40          64   
.bss.mcan1RxMsg         0x2040a3b4           0x3c          60   
.bss.mcan1Obj           0x2040a3f0           0x28          40   
.bss.mcan1CallbackObj   0x2040a418           0x20          32   
.bss                    0x2040a438           0x1c          28  Uninitialized data 
.bss.xDelayedTaskList1  0x2040a454           0x14          20   
.bss.xDelayedTaskList2  0x2040a468           0x14          20   
.bss.xPendingReadyList  0x2040a47c           0x14          20   
.bss.xSuspendedTaskList 0x2040a490           0x14          20   
.bss.xTasksWaitingTermi 0x2040a4a4           0x14          20   
.bss.cmd.7930           0x2040a4b8            0x4           4   
.bss.xTAREA_PRINCIPAL_T 0x2040a4bc            0x4           4   
.data.uxCriticalNesting 0x2040a4c0            0x4           4   
.bss.pucAlignedHeap.616 0x2040a4c4            0x4           4   
.bss.xNextFreeByte      0x2040a4c8            0x4           4   
.bss.pxCurrentTCB       0x2040a4cc            0x4           4   
.bss.pxDelayedTaskList  0x2040a4d0            0x4           4   
.bss.pxOverflowDelayedT 0x2040a4d4            0x4           4   
.bss.uxCurrentNumberOfT 0x2040a4d8            0x4           4   
.bss.uxDeletedTasksWait 0x2040a4dc            0x4           4   
.bss.uxSchedulerSuspend 0x2040a4e0            0x4           4   
.bss.uxTaskNumber       0x2040a4e4            0x4           4   
.bss.uxTopReadyPriority 0x2040a4e8            0x4           4   
.bss.xIdleTaskHandle    0x2040a4ec            0x4           4   
.bss.xNextTaskUnblockTi 0x2040a4f0            0x4           4   
.bss.xNumOfOverflows    0x2040a4f4            0x4           4   
.bss.xPendedTicks       0x2040a4f8            0x4           4   
.bss.xSchedulerRunning  0x2040a4fc            0x4           4   
.bss.xTickCount         0x2040a500            0x4           4   
.bss.xYieldPending      0x2040a504            0x4           4   
.bss.canMutexLock       0x2040a508            0x4           4   
.bss.message.9599       0x2040a50c            0x4           4   
.bss.rx_messageID       0x2040a510            0x4           4   
.bss.xTAREA_Can         0x2040a514            0x4           4   
.bss.xTAREA_Can1        0x2040a518            0x4           4   
.bss.xTAREA_Can2        0x2040a51c            0x4           4   
.bss.xferContext        0x2040a520            0x4           4   
.bss.Semaforo_uart      0x2040a524            0x4           4   
.bss.dataRxSemaphore    0x2040a528            0x4           4   
.bss.xTAREA_UART_Tasks  0x2040a52c            0x4           4   
.bss                    0x2040a530            0xc          12  Uninitialized data 
.bss.tarea_uartData     0x2040a53c            0x1           1   
.bss.messageMarker.8204 0x2040a53d            0x1           1   
.bss.timestamp          0x2040a53e            0x2           2   
.bss.tarea_principalDat 0x2040a540            0x1           1   
.bss.estado.9609        0x2040a541            0x1           1   
.bss.msgFrameAttr       0x2040a542            0x1           1   
.bss.rx_messageLength   0x2040a543            0x1           1   
.data.state             0x2040a544            0x1           1   
.data.readByte          0x2040a545            0x1           1   
         Total RAM used  :      0xa546       42310  10.8% of 0x60000
        --------------------------------------------------------------------------
            Total Data Memory used  :      0xa546       42310  10.8% of 0x60000
        --------------------------------------------------------------------------


Dynamic Data-Memory Reservation
section                    address  length [bytes]      (dec)  Description
-------                 ----------  -------------------------  -----------
heap                    0x2040a548          0x200         512  Reserved for heap 
stack                   0x2040a760        0x55890      350352  Reserved for stack 

        --------------------------------------------------------------------------

Discarded input sections

 .text          0x00000000        0x0 c:/program files/microchip/xc32/v4.00/bin/bin/../../lib/gcc/pic32c/8.3.1/thumb/v7e-m+dp/hard/crti.o
 .data          0x00000000        0x0 c:/program files/microchip/xc32/v4.00/bin/bin/../../lib/gcc/pic32c/8.3.1/thumb/v7e-m+dp/hard/crti.o
 .bss           0x00000000        0x0 c:/program files/microchip/xc32/v4.00/bin/bin/../../lib/gcc/pic32c/8.3.1/thumb/v7e-m+dp/hard/crti.o
 .xc_stack_usage.hdr
                0x00000000        0xe c:/program files/microchip/xc32/v4.00/bin/bin/../../lib/gcc/pic32c/8.3.1/thumb/v7e-m+dp/hard/crti.o
 .xc_stack_usage
                0x00000000       0x26 c:/program files/microchip/xc32/v4.00/bin/bin/../../lib/gcc/pic32c/8.3.1/thumb/v7e-m+dp/hard/crti.o
 .data          0x00000000        0x4 c:/program files/microchip/xc32/v4.00/bin/bin/../../lib/gcc/pic32c/8.3.1/thumb/v7e-m+dp/hard/crtbegin.o
 .xc_stack_usage
                0x00000000       0x3c c:/program files/microchip/xc32/v4.00/bin/bin/../../lib/gcc/pic32c/8.3.1/thumb/v7e-m+dp/hard/crtbegin.o
 .xc_stack_usage.hdr
                0x00000000        0xe c:/program files/microchip/xc32/v4.00/bin/bin/../../lib/gcc/pic32c/8.3.1/thumb/v7e-m+dp/hard/crtbegin.o
 .text          0x00000000        0x0 build/sam_v71_xult/production/_ext/191436215/osal_freertos.o
 .data          0x00000000        0x0 build/sam_v71_xult/production/_ext/191436215/osal_freertos.o
 .bss           0x00000000        0x0 build/sam_v71_xult/production/_ext/191436215/osal_freertos.o
 .text.OSAL_CRIT_Enter
                0x00000000       0x18 build/sam_v71_xult/production/_ext/191436215/osal_freertos.o
 .text.OSAL_CRIT_Leave
                0x00000000       0x16 build/sam_v71_xult/production/_ext/191436215/osal_freertos.o
 .text.OSAL_SEM_Create
                0x00000000       0x58 build/sam_v71_xult/production/_ext/191436215/osal_freertos.o
 .text.OSAL_SEM_Delete
                0x00000000       0x12 build/sam_v71_xult/production/_ext/191436215/osal_freertos.o
 .text.OSAL_SEM_Pend
                0x00000000       0x1e build/sam_v71_xult/production/_ext/191436215/osal_freertos.o
 .text.OSAL_SEM_Post
                0x00000000       0x18 build/sam_v71_xult/production/_ext/191436215/osal_freertos.o
 .text.OSAL_SEM_PostISR
                0x00000000       0x3c build/sam_v71_xult/production/_ext/191436215/osal_freertos.o
 .text.OSAL_SEM_GetCount
                0x00000000       0x12 build/sam_v71_xult/production/_ext/191436215/osal_freertos.o
 .text.OSAL_MUTEX_Create
                0x00000000       0x18 build/sam_v71_xult/production/_ext/191436215/osal_freertos.o
 .text.OSAL_MUTEX_Delete
                0x00000000       0x1a build/sam_v71_xult/production/_ext/191436215/osal_freertos.o
 .text.OSAL_MUTEX_Lock
                0x00000000       0x1e build/sam_v71_xult/production/_ext/191436215/osal_freertos.o
 .text.OSAL_MUTEX_Unlock
                0x00000000       0x18 build/sam_v71_xult/production/_ext/191436215/osal_freertos.o
 .text.OSAL_Malloc
                0x00000000        0x8 build/sam_v71_xult/production/_ext/191436215/osal_freertos.o
 .text.OSAL_Free
                0x00000000        0x8 build/sam_v71_xult/production/_ext/191436215/osal_freertos.o
 .text.OSAL_Initialize
                0x00000000        0x4 build/sam_v71_xult/production/_ext/191436215/osal_freertos.o
 .debug_info    0x00000000      0xbdc build/sam_v71_xult/production/_ext/191436215/osal_freertos.o
 .debug_abbrev  0x00000000      0x204 build/sam_v71_xult/production/_ext/191436215/osal_freertos.o
 .debug_loc     0x00000000      0x727 build/sam_v71_xult/production/_ext/191436215/osal_freertos.o
 .debug_aranges
                0x00000000       0x90 build/sam_v71_xult/production/_ext/191436215/osal_freertos.o
 .debug_ranges  0x00000000       0x80 build/sam_v71_xult/production/_ext/191436215/osal_freertos.o
 .debug_line    0x00000000      0x448 build/sam_v71_xult/production/_ext/191436215/osal_freertos.o
 .debug_str     0x00000000      0x13b build/sam_v71_xult/production/_ext/191436215/osal_freertos.o
 .comment       0x00000000       0x54 build/sam_v71_xult/production/_ext/191436215/osal_freertos.o
 .debug_frame   0x00000000      0x180 build/sam_v71_xult/production/_ext/191436215/osal_freertos.o
 .ARM.attributes
                0x00000000       0x32 build/sam_v71_xult/production/_ext/191436215/osal_freertos.o
 .text          0x00000000        0x0 build/sam_v71_xult/production/_ext/1157990217/plib_clk.o
 .data          0x00000000        0x0 build/sam_v71_xult/production/_ext/1157990217/plib_clk.o
 .bss           0x00000000        0x0 build/sam_v71_xult/production/_ext/1157990217/plib_clk.o
 .text          0x00000000        0x0 build/sam_v71_xult/production/_ext/1157988489/plib_efc.o
 .data          0x00000000        0x0 build/sam_v71_xult/production/_ext/1157988489/plib_efc.o
 .bss           0x00000000        0x0 build/sam_v71_xult/production/_ext/1157988489/plib_efc.o
 .text.EFC_Read
                0x00000000       0x10 build/sam_v71_xult/production/_ext/1157988489/plib_efc.o
 .text.EFC_SectorErase
                0x00000000       0x28 build/sam_v71_xult/production/_ext/1157988489/plib_efc.o
 .text.EFC_PageWrite
                0x00000000       0x5c build/sam_v71_xult/production/_ext/1157988489/plib_efc.o
 .text.EFC_QuadWordWrite
                0x00000000       0x48 build/sam_v71_xult/production/_ext/1157988489/plib_efc.o
 .text.EFC_RegionLock
                0x00000000       0x2c build/sam_v71_xult/production/_ext/1157988489/plib_efc.o
 .text.EFC_RegionUnlock
                0x00000000       0x2c build/sam_v71_xult/production/_ext/1157988489/plib_efc.o
 .text.EFC_IsBusy
                0x00000000       0x20 build/sam_v71_xult/production/_ext/1157988489/plib_efc.o
 .text.EFC_ErrorGet
                0x00000000       0x18 build/sam_v71_xult/production/_ext/1157988489/plib_efc.o
 .bss.status    0x00000000        0x4 build/sam_v71_xult/production/_ext/1157988489/plib_efc.o
 .text          0x00000000        0x0 build/sam_v71_xult/production/_ext/1537669298/plib_mcan1.o
 .data          0x00000000        0x0 build/sam_v71_xult/production/_ext/1537669298/plib_mcan1.o
 .bss           0x00000000        0x0 build/sam_v71_xult/production/_ext/1537669298/plib_mcan1.o
 .text.MCAN1_TransmitEventFIFOElementGet
                0x00000000       0x5c build/sam_v71_xult/production/_ext/1537669298/plib_mcan1.o
 .text.MCAN1_ErrorCountGet
                0x00000000       0x14 build/sam_v71_xult/production/_ext/1537669298/plib_mcan1.o
 .text.MCAN1_InterruptGet
                0x00000000       0x14 build/sam_v71_xult/production/_ext/1537669298/plib_mcan1.o
 .text.MCAN1_InterruptClear
                0x00000000        0xc build/sam_v71_xult/production/_ext/1537669298/plib_mcan1.o
 .text.MCAN1_TxFIFOIsFull
                0x00000000       0x10 build/sam_v71_xult/production/_ext/1537669298/plib_mcan1.o
 .text.MCAN1_StandardFilterElementSet
                0x00000000       0x24 build/sam_v71_xult/production/_ext/1537669298/plib_mcan1.o
 .text.MCAN1_StandardFilterElementGet
                0x00000000       0x24 build/sam_v71_xult/production/_ext/1537669298/plib_mcan1.o
 .text.MCAN1_ExtendedFilterElementSet
                0x00000000       0x34 build/sam_v71_xult/production/_ext/1537669298/plib_mcan1.o
 .text.MCAN1_ExtendedFilterElementGet
                0x00000000       0x2c build/sam_v71_xult/production/_ext/1537669298/plib_mcan1.o
 .text.MCAN1_SleepModeEnter
                0x00000000       0x18 build/sam_v71_xult/production/_ext/1537669298/plib_mcan1.o
 .text.MCAN1_SleepModeExit
                0x00000000       0x2c build/sam_v71_xult/production/_ext/1537669298/plib_mcan1.o
 .text          0x00000000        0x0 build/sam_v71_xult/production/_ext/1157980473/plib_mpu.o
 .data          0x00000000        0x0 build/sam_v71_xult/production/_ext/1157980473/plib_mpu.o
 .bss           0x00000000        0x0 build/sam_v71_xult/production/_ext/1157980473/plib_mpu.o
 .text          0x00000000        0x0 build/sam_v71_xult/production/_ext/1537621011/plib_nvic.o
 .data          0x00000000        0x0 build/sam_v71_xult/production/_ext/1537621011/plib_nvic.o
 .bss           0x00000000        0x0 build/sam_v71_xult/production/_ext/1537621011/plib_nvic.o
 .text.NVIC_INT_Enable
                0x00000000        0x8 build/sam_v71_xult/production/_ext/1537621011/plib_nvic.o
 .text.NVIC_INT_Disable
                0x00000000       0x12 build/sam_v71_xult/production/_ext/1537621011/plib_nvic.o
 .text.NVIC_INT_Restore
                0x00000000       0x12 build/sam_v71_xult/production/_ext/1537621011/plib_nvic.o
 .text          0x00000000        0x0 build/sam_v71_xult/production/_ext/1157977813/plib_pio.o
 .data          0x00000000        0x0 build/sam_v71_xult/production/_ext/1157977813/plib_pio.o
 .bss           0x00000000        0x0 build/sam_v71_xult/production/_ext/1157977813/plib_pio.o
 .text.PIO_PortRead
                0x00000000        0x4 build/sam_v71_xult/production/_ext/1157977813/plib_pio.o
 .text.PIO_PortWrite
                0x00000000        0xc build/sam_v71_xult/production/_ext/1157977813/plib_pio.o
 .text.PIO_PortLatchRead
                0x00000000        0x4 build/sam_v71_xult/production/_ext/1157977813/plib_pio.o
 .text.PIO_PortSet
                0x00000000        0x4 build/sam_v71_xult/production/_ext/1157977813/plib_pio.o
 .text.PIO_PortClear
                0x00000000        0x4 build/sam_v71_xult/production/_ext/1157977813/plib_pio.o
 .text.PIO_PortToggle
                0x00000000        0x8 build/sam_v71_xult/production/_ext/1157977813/plib_pio.o
 .text.PIO_PortInputEnable
                0x00000000        0x4 build/sam_v71_xult/production/_ext/1157977813/plib_pio.o
 .text.PIO_PortOutputEnable
                0x00000000        0x4 build/sam_v71_xult/production/_ext/1157977813/plib_pio.o
 .text          0x00000000        0x0 build/sam_v71_xult/production/_ext/415242918/plib_usart1.o
 .data          0x00000000        0x0 build/sam_v71_xult/production/_ext/415242918/plib_usart1.o
 .bss           0x00000000        0x0 build/sam_v71_xult/production/_ext/415242918/plib_usart1.o
 .text.USART1_SerialSetup
                0x00000000       0x7c build/sam_v71_xult/production/_ext/415242918/plib_usart1.o
 .text.USART1_ErrorGet
                0x00000000       0x14 build/sam_v71_xult/production/_ext/415242918/plib_usart1.o
 .text.USART1_ReadFreeBufferCountGet
                0x00000000       0x14 build/sam_v71_xult/production/_ext/415242918/plib_usart1.o
 .text.USART1_ReadBufferSizeGet
                0x00000000        0xc build/sam_v71_xult/production/_ext/415242918/plib_usart1.o
 .text.USART1_WriteCountGet
                0x00000000        0x8 build/sam_v71_xult/production/_ext/415242918/plib_usart1.o
 .text.USART1_WriteBufferSizeGet
                0x00000000        0xc build/sam_v71_xult/production/_ext/415242918/plib_usart1.o
 .text.USART1_WriteNotificationEnable
                0x00000000       0x10 build/sam_v71_xult/production/_ext/415242918/plib_usart1.o
 .text.USART1_WriteThresholdSet
                0x00000000        0xc build/sam_v71_xult/production/_ext/415242918/plib_usart1.o
 .text.USART1_WriteCallbackRegister
                0x00000000        0xc build/sam_v71_xult/production/_ext/415242918/plib_usart1.o
 .text          0x00000000        0x0 build/sam_v71_xult/production/_ext/1643282145/xc32_monitor.o
 .data          0x00000000        0x0 build/sam_v71_xult/production/_ext/1643282145/xc32_monitor.o
 .bss           0x00000000        0x0 build/sam_v71_xult/production/_ext/1643282145/xc32_monitor.o
 .text._mon_getc
                0x00000000        0x4 build/sam_v71_xult/production/_ext/1643282145/xc32_monitor.o
 .text._mon_putc
                0x00000000        0x2 build/sam_v71_xult/production/_ext/1643282145/xc32_monitor.o
 .debug_info    0x00000000      0x2bd build/sam_v71_xult/production/_ext/1643282145/xc32_monitor.o
 .debug_abbrev  0x00000000       0x80 build/sam_v71_xult/production/_ext/1643282145/xc32_monitor.o
 .debug_loc     0x00000000       0x25 build/sam_v71_xult/production/_ext/1643282145/xc32_monitor.o
 .debug_aranges
                0x00000000       0x28 build/sam_v71_xult/production/_ext/1643282145/xc32_monitor.o
 .debug_ranges  0x00000000       0x18 build/sam_v71_xult/production/_ext/1643282145/xc32_monitor.o
 .debug_line    0x00000000       0x82 build/sam_v71_xult/production/_ext/1643282145/xc32_monitor.o
 .debug_str     0x00000000        0x0 build/sam_v71_xult/production/_ext/1643282145/xc32_monitor.o
 .comment       0x00000000       0x54 build/sam_v71_xult/production/_ext/1643282145/xc32_monitor.o
 .debug_frame   0x00000000       0x30 build/sam_v71_xult/production/_ext/1643282145/xc32_monitor.o
 .ARM.attributes
                0x00000000       0x32 build/sam_v71_xult/production/_ext/1643282145/xc32_monitor.o
 .text          0x00000000        0x0 build/sam_v71_xult/production/_ext/1871840330/sys_cache.o
 .data          0x00000000        0x0 build/sam_v71_xult/production/_ext/1871840330/sys_cache.o
 .bss           0x00000000        0x0 build/sam_v71_xult/production/_ext/1871840330/sys_cache.o
 .text.SYS_CACHE_EnableCaches
                0x00000000       0xb0 build/sam_v71_xult/production/_ext/1871840330/sys_cache.o
 .text.SYS_CACHE_DisableCaches
                0x00000000       0x94 build/sam_v71_xult/production/_ext/1871840330/sys_cache.o
 .text.SYS_CACHE_EnableICache
                0x00000000       0x44 build/sam_v71_xult/production/_ext/1871840330/sys_cache.o
 .text.SYS_CACHE_DisableICache
                0x00000000       0x30 build/sam_v71_xult/production/_ext/1871840330/sys_cache.o
 .text.SYS_CACHE_InvalidateICache
                0x00000000       0x28 build/sam_v71_xult/production/_ext/1871840330/sys_cache.o
 .text.SYS_CACHE_EnableDCache
                0x00000000       0x74 build/sam_v71_xult/production/_ext/1871840330/sys_cache.o
 .text.SYS_CACHE_DisableDCache
                0x00000000       0x68 build/sam_v71_xult/production/_ext/1871840330/sys_cache.o
 .text.SYS_CACHE_InvalidateDCache
                0x00000000       0x5c build/sam_v71_xult/production/_ext/1871840330/sys_cache.o
 .text.SYS_CACHE_CleanDCache
                0x00000000       0x5c build/sam_v71_xult/production/_ext/1871840330/sys_cache.o
 .text.SYS_CACHE_CleanInvalidateDCache
                0x00000000       0x5c build/sam_v71_xult/production/_ext/1871840330/sys_cache.o
 .text.SYS_CACHE_InvalidateDCache_by_Addr
                0x00000000       0x38 build/sam_v71_xult/production/_ext/1871840330/sys_cache.o
 .text.SYS_CACHE_CleanDCache_by_Addr
                0x00000000       0x38 build/sam_v71_xult/production/_ext/1871840330/sys_cache.o
 .text.SYS_CACHE_CleanInvalidateDCache_by_Addr
                0x00000000       0x38 build/sam_v71_xult/production/_ext/1871840330/sys_cache.o
 .debug_info    0x00000000     0x1609 build/sam_v71_xult/production/_ext/1871840330/sys_cache.o
 .debug_abbrev  0x00000000      0x24a build/sam_v71_xult/production/_ext/1871840330/sys_cache.o
 .debug_loc     0x00000000      0x6bb build/sam_v71_xult/production/_ext/1871840330/sys_cache.o
 .debug_aranges
                0x00000000       0x80 build/sam_v71_xult/production/_ext/1871840330/sys_cache.o
 .debug_ranges  0x00000000       0xe8 build/sam_v71_xult/production/_ext/1871840330/sys_cache.o
 .debug_line    0x00000000      0xb00 build/sam_v71_xult/production/_ext/1871840330/sys_cache.o
 .debug_str     0x00000000       0x1c build/sam_v71_xult/production/_ext/1871840330/sys_cache.o
 .comment       0x00000000       0x54 build/sam_v71_xult/production/_ext/1871840330/sys_cache.o
 .debug_frame   0x00000000      0x150 build/sam_v71_xult/production/_ext/1871840330/sys_cache.o
 .ARM.attributes
                0x00000000       0x32 build/sam_v71_xult/production/_ext/1871840330/sys_cache.o
 .text          0x00000000        0x0 build/sam_v71_xult/production/_ext/663512716/sys_int.o
 .data          0x00000000        0x0 build/sam_v71_xult/production/_ext/663512716/sys_int.o
 .bss           0x00000000        0x0 build/sam_v71_xult/production/_ext/663512716/sys_int.o
 .text.SYS_INT_Enable
                0x00000000        0x8 build/sam_v71_xult/production/_ext/663512716/sys_int.o
 .text.SYS_INT_Disable
                0x00000000        0x8 build/sam_v71_xult/production/_ext/663512716/sys_int.o
 .text.SYS_INT_Restore
                0x00000000        0x8 build/sam_v71_xult/production/_ext/663512716/sys_int.o
 .text.SYS_INT_SourceDisable
                0x00000000       0x44 build/sam_v71_xult/production/_ext/663512716/sys_int.o
 .text.SYS_INT_SourceRestore
                0x00000000       0x20 build/sam_v71_xult/production/_ext/663512716/sys_int.o
 .debug_info    0x00000000      0xcd1 build/sam_v71_xult/production/_ext/663512716/sys_int.o
 .debug_abbrev  0x00000000      0x267 build/sam_v71_xult/production/_ext/663512716/sys_int.o
 .debug_loc     0x00000000      0x182 build/sam_v71_xult/production/_ext/663512716/sys_int.o
 .debug_aranges
                0x00000000       0x40 build/sam_v71_xult/production/_ext/663512716/sys_int.o
 .debug_ranges  0x00000000       0x48 build/sam_v71_xult/production/_ext/663512716/sys_int.o
 .debug_line    0x00000000      0x2d3 build/sam_v71_xult/production/_ext/663512716/sys_int.o
 .debug_str     0x00000000       0x32 build/sam_v71_xult/production/_ext/663512716/sys_int.o
 .comment       0x00000000       0x54 build/sam_v71_xult/production/_ext/663512716/sys_int.o
 .debug_frame   0x00000000       0x84 build/sam_v71_xult/production/_ext/663512716/sys_int.o
 .ARM.attributes
                0x00000000       0x32 build/sam_v71_xult/production/_ext/663512716/sys_int.o
 .text          0x00000000        0x0 build/sam_v71_xult/production/_ext/1320227943/initialization.o
 .data          0x00000000        0x0 build/sam_v71_xult/production/_ext/1320227943/initialization.o
 .bss           0x00000000        0x0 build/sam_v71_xult/production/_ext/1320227943/initialization.o
 .text          0x00000000        0x0 build/sam_v71_xult/production/_ext/1320227943/interrupts.o
 .data          0x00000000        0x0 build/sam_v71_xult/production/_ext/1320227943/interrupts.o
 .bss           0x00000000        0x0 build/sam_v71_xult/production/_ext/1320227943/interrupts.o
 .text          0x00000000        0x0 build/sam_v71_xult/production/_ext/1320227943/exceptions.o
 .data          0x00000000        0x0 build/sam_v71_xult/production/_ext/1320227943/exceptions.o
 .bss           0x00000000        0x0 build/sam_v71_xult/production/_ext/1320227943/exceptions.o
 .text          0x00000000        0x0 build/sam_v71_xult/production/_ext/1320227943/startup_xc32.o
 .data          0x00000000        0x0 build/sam_v71_xult/production/_ext/1320227943/startup_xc32.o
 .bss           0x00000000        0x0 build/sam_v71_xult/production/_ext/1320227943/startup_xc32.o
 .text          0x00000000        0x0 build/sam_v71_xult/production/_ext/1320227943/libc_syscalls.o
 .data          0x00000000        0x0 build/sam_v71_xult/production/_ext/1320227943/libc_syscalls.o
 .bss           0x00000000        0x0 build/sam_v71_xult/production/_ext/1320227943/libc_syscalls.o
 .text._exit    0x00000000        0x2 build/sam_v71_xult/production/_ext/1320227943/libc_syscalls.o
 .debug_info    0x00000000      0x3b3 build/sam_v71_xult/production/_ext/1320227943/libc_syscalls.o
 .debug_abbrev  0x00000000       0xb6 build/sam_v71_xult/production/_ext/1320227943/libc_syscalls.o
 .debug_loc     0x00000000       0x15 build/sam_v71_xult/production/_ext/1320227943/libc_syscalls.o
 .debug_aranges
                0x00000000       0x20 build/sam_v71_xult/production/_ext/1320227943/libc_syscalls.o
 .debug_ranges  0x00000000       0x10 build/sam_v71_xult/production/_ext/1320227943/libc_syscalls.o
 .debug_line    0x00000000      0x126 build/sam_v71_xult/production/_ext/1320227943/libc_syscalls.o
 .debug_str     0x00000000        0x0 build/sam_v71_xult/production/_ext/1320227943/libc_syscalls.o
 .comment       0x00000000       0x54 build/sam_v71_xult/production/_ext/1320227943/libc_syscalls.o
 .debug_frame   0x00000000       0x20 build/sam_v71_xult/production/_ext/1320227943/libc_syscalls.o
 .ARM.attributes
                0x00000000       0x32 build/sam_v71_xult/production/_ext/1320227943/libc_syscalls.o
 .text          0x00000000        0x0 build/sam_v71_xult/production/_ext/1320227943/freertos_hooks.o
 .data          0x00000000        0x0 build/sam_v71_xult/production/_ext/1320227943/freertos_hooks.o
 .bss           0x00000000        0x0 build/sam_v71_xult/production/_ext/1320227943/freertos_hooks.o
 .text.vApplicationMallocFailedHook
                0x00000000       0x16 build/sam_v71_xult/production/_ext/1320227943/freertos_hooks.o
 .text.vApplicationIdleHook
                0x00000000        0x2 build/sam_v71_xult/production/_ext/1320227943/freertos_hooks.o
 .text.vApplicationTickHook
                0x00000000        0x2 build/sam_v71_xult/production/_ext/1320227943/freertos_hooks.o
 .text.vAssertCalled
                0x00000000       0x1c build/sam_v71_xult/production/_ext/1320227943/freertos_hooks.o
 .text          0x00000000        0x0 build/sam_v71_xult/production/_ext/1320227943/tasks.o
 .data          0x00000000        0x0 build/sam_v71_xult/production/_ext/1320227943/tasks.o
 .bss           0x00000000        0x0 build/sam_v71_xult/production/_ext/1320227943/tasks.o
 .text          0x00000000        0x0 build/sam_v71_xult/production/_ext/977623654/port.o
 .data          0x00000000        0x0 build/sam_v71_xult/production/_ext/977623654/port.o
 .bss           0x00000000        0x0 build/sam_v71_xult/production/_ext/977623654/port.o
 .text.vPortEndScheduler
                0x00000000        0x2 build/sam_v71_xult/production/_ext/977623654/port.o
 .text          0x00000000        0x0 build/sam_v71_xult/production/_ext/1665200909/heap_1.o
 .data          0x00000000        0x0 build/sam_v71_xult/production/_ext/1665200909/heap_1.o
 .bss           0x00000000        0x0 build/sam_v71_xult/production/_ext/1665200909/heap_1.o
 .text.vPortInitialiseBlocks
                0x00000000        0xc build/sam_v71_xult/production/_ext/1665200909/heap_1.o
 .text.xPortGetFreeHeapSize
                0x00000000       0x10 build/sam_v71_xult/production/_ext/1665200909/heap_1.o
 .text          0x00000000        0x0 build/sam_v71_xult/production/_ext/404212886/croutine.o
 .data          0x00000000        0x0 build/sam_v71_xult/production/_ext/404212886/croutine.o
 .bss           0x00000000        0x0 build/sam_v71_xult/production/_ext/404212886/croutine.o
 .debug_info    0x00000000      0x2f7 build/sam_v71_xult/production/_ext/404212886/croutine.o
 .debug_abbrev  0x00000000       0x1b build/sam_v71_xult/production/_ext/404212886/croutine.o
 .debug_aranges
                0x00000000       0x18 build/sam_v71_xult/production/_ext/404212886/croutine.o
 .debug_line    0x00000000       0x1d build/sam_v71_xult/production/_ext/404212886/croutine.o
 .debug_str     0x00000000        0x0 build/sam_v71_xult/production/_ext/404212886/croutine.o
 .comment       0x00000000       0x54 build/sam_v71_xult/production/_ext/404212886/croutine.o
 .ARM.attributes
                0x00000000       0x37 build/sam_v71_xult/production/_ext/404212886/croutine.o
 .text          0x00000000        0x0 build/sam_v71_xult/production/_ext/404212886/list.o
 .data          0x00000000        0x0 build/sam_v71_xult/production/_ext/404212886/list.o
 .bss           0x00000000        0x0 build/sam_v71_xult/production/_ext/404212886/list.o
 .text          0x00000000        0x0 build/sam_v71_xult/production/_ext/404212886/queue.o
 .data          0x00000000        0x0 build/sam_v71_xult/production/_ext/404212886/queue.o
 .bss           0x00000000        0x0 build/sam_v71_xult/production/_ext/404212886/queue.o
 .text.prvCopyDataFromQueue
                0x00000000       0x24 build/sam_v71_xult/production/_ext/404212886/queue.o
 .text.xQueueCreateCountingSemaphore
                0x00000000       0x16 build/sam_v71_xult/production/_ext/404212886/queue.o
 .text.xQueueGenericSendFromISR
                0x00000000       0x70 build/sam_v71_xult/production/_ext/404212886/queue.o
 .text.xQueueReceive
                0x00000000      0x114 build/sam_v71_xult/production/_ext/404212886/queue.o
 .text.xQueuePeek
                0x00000000      0x110 build/sam_v71_xult/production/_ext/404212886/queue.o
 .text.xQueueReceiveFromISR
                0x00000000       0x72 build/sam_v71_xult/production/_ext/404212886/queue.o
 .text.xQueuePeekFromISR
                0x00000000       0x34 build/sam_v71_xult/production/_ext/404212886/queue.o
 .text.uxQueueMessagesWaiting
                0x00000000       0x12 build/sam_v71_xult/production/_ext/404212886/queue.o
 .text.uxQueueSpacesAvailable
                0x00000000       0x16 build/sam_v71_xult/production/_ext/404212886/queue.o
 .text.uxQueueMessagesWaitingFromISR
                0x00000000        0x4 build/sam_v71_xult/production/_ext/404212886/queue.o
 .text.vQueueDelete
                0x00000000        0x8 build/sam_v71_xult/production/_ext/404212886/queue.o
 .text.xQueueIsQueueEmptyFromISR
                0x00000000        0xa build/sam_v71_xult/production/_ext/404212886/queue.o
 .text.xQueueIsQueueFullFromISR
                0x00000000        0xe build/sam_v71_xult/production/_ext/404212886/queue.o
 .text          0x00000000        0x0 build/sam_v71_xult/production/_ext/404212886/FreeRTOS_tasks.o
 .data          0x00000000        0x0 build/sam_v71_xult/production/_ext/404212886/FreeRTOS_tasks.o
 .bss           0x00000000        0x0 build/sam_v71_xult/production/_ext/404212886/FreeRTOS_tasks.o
 .text.uxTaskPriorityGet
                0x00000000       0x20 build/sam_v71_xult/production/_ext/404212886/FreeRTOS_tasks.o
 .text.uxTaskPriorityGetFromISR
                0x00000000       0x2c build/sam_v71_xult/production/_ext/404212886/FreeRTOS_tasks.o
 .text.vTaskPrioritySet
                0x00000000       0xd0 build/sam_v71_xult/production/_ext/404212886/FreeRTOS_tasks.o
 .text.vTaskResume
                0x00000000       0x88 build/sam_v71_xult/production/_ext/404212886/FreeRTOS_tasks.o
 .text.vTaskEndScheduler
                0x00000000       0x28 build/sam_v71_xult/production/_ext/404212886/FreeRTOS_tasks.o
 .text.xTaskGetTickCount
                0x00000000        0xc build/sam_v71_xult/production/_ext/404212886/FreeRTOS_tasks.o
 .text.xTaskGetTickCountFromISR
                0x00000000        0xc build/sam_v71_xult/production/_ext/404212886/FreeRTOS_tasks.o
 .text.uxTaskGetNumberOfTasks
                0x00000000        0xc build/sam_v71_xult/production/_ext/404212886/FreeRTOS_tasks.o
 .text.pcTaskGetName
                0x00000000       0x14 build/sam_v71_xult/production/_ext/404212886/FreeRTOS_tasks.o
 .text.vTaskDelayUntil
                0x00000000       0x60 build/sam_v71_xult/production/_ext/404212886/FreeRTOS_tasks.o
 .text.xTaskCatchUpTicks
                0x00000000       0x1c build/sam_v71_xult/production/_ext/404212886/FreeRTOS_tasks.o
 .text.vTaskSuspend
                0x00000000       0xd0 build/sam_v71_xult/production/_ext/404212886/FreeRTOS_tasks.o
 .text.vTaskPlaceOnUnorderedEventList
                0x00000000       0x24 build/sam_v71_xult/production/_ext/404212886/FreeRTOS_tasks.o
 .text.vTaskRemoveFromUnorderedEventList
                0x00000000       0x58 build/sam_v71_xult/production/_ext/404212886/FreeRTOS_tasks.o
 .text.vTaskSetTimeOutState
                0x00000000       0x24 build/sam_v71_xult/production/_ext/404212886/FreeRTOS_tasks.o
 .text.xTaskGetCurrentTaskHandle
                0x00000000        0xc build/sam_v71_xult/production/_ext/404212886/FreeRTOS_tasks.o
 .text.uxTaskResetEventItemValue
                0x00000000       0x18 build/sam_v71_xult/production/_ext/404212886/FreeRTOS_tasks.o
 .text.ulTaskNotifyTake
                0x00000000       0x78 build/sam_v71_xult/production/_ext/404212886/FreeRTOS_tasks.o
 .text.xTaskNotifyWait
                0x00000000       0x98 build/sam_v71_xult/production/_ext/404212886/FreeRTOS_tasks.o
 .text.xTaskGenericNotify
                0x00000000       0xb4 build/sam_v71_xult/production/_ext/404212886/FreeRTOS_tasks.o
 .text.xTaskGenericNotifyFromISR
                0x00000000       0xd8 build/sam_v71_xult/production/_ext/404212886/FreeRTOS_tasks.o
 .text.vTaskNotifyGiveFromISR
                0x00000000       0xa4 build/sam_v71_xult/production/_ext/404212886/FreeRTOS_tasks.o
 .text.xTaskNotifyStateClear
                0x00000000       0x34 build/sam_v71_xult/production/_ext/404212886/FreeRTOS_tasks.o
 .text.ulTaskNotifyValueClear
                0x00000000       0x2c build/sam_v71_xult/production/_ext/404212886/FreeRTOS_tasks.o
 .text          0x00000000        0x0 build/sam_v71_xult/production/_ext/404212886/timers.o
 .data          0x00000000        0x0 build/sam_v71_xult/production/_ext/404212886/timers.o
 .bss           0x00000000        0x0 build/sam_v71_xult/production/_ext/404212886/timers.o
 .debug_info    0x00000000      0x2f5 build/sam_v71_xult/production/_ext/404212886/timers.o
 .debug_abbrev  0x00000000       0x1b build/sam_v71_xult/production/_ext/404212886/timers.o
 .debug_aranges
                0x00000000       0x18 build/sam_v71_xult/production/_ext/404212886/timers.o
 .debug_line    0x00000000       0x1d build/sam_v71_xult/production/_ext/404212886/timers.o
 .debug_str     0x00000000        0x0 build/sam_v71_xult/production/_ext/404212886/timers.o
 .comment       0x00000000       0x54 build/sam_v71_xult/production/_ext/404212886/timers.o
 .ARM.attributes
                0x00000000       0x37 build/sam_v71_xult/production/_ext/404212886/timers.o
 .text          0x00000000        0x0 build/sam_v71_xult/production/_ext/404212886/event_groups.o
 .data          0x00000000        0x0 build/sam_v71_xult/production/_ext/404212886/event_groups.o
 .bss           0x00000000        0x0 build/sam_v71_xult/production/_ext/404212886/event_groups.o
 .text.xEventGroupCreate
                0x00000000       0x1a build/sam_v71_xult/production/_ext/404212886/event_groups.o
 .text.xEventGroupWaitBits
                0x00000000       0xc0 build/sam_v71_xult/production/_ext/404212886/event_groups.o
 .text.xEventGroupClearBits
                0x00000000       0x1a build/sam_v71_xult/production/_ext/404212886/event_groups.o
 .text.xEventGroupGetBitsFromISR
                0x00000000       0x20 build/sam_v71_xult/production/_ext/404212886/event_groups.o
 .text.xEventGroupSetBits
                0x00000000       0x66 build/sam_v71_xult/production/_ext/404212886/event_groups.o
 .text.xEventGroupSync
                0x00000000       0x94 build/sam_v71_xult/production/_ext/404212886/event_groups.o
 .text.vEventGroupDelete
                0x00000000       0x2a build/sam_v71_xult/production/_ext/404212886/event_groups.o
 .text.vEventGroupSetBitsCallback
                0x00000000        0x8 build/sam_v71_xult/production/_ext/404212886/event_groups.o
 .text.vEventGroupClearBitsCallback
                0x00000000        0x8 build/sam_v71_xult/production/_ext/404212886/event_groups.o
 .debug_info    0x00000000      0xf7a build/sam_v71_xult/production/_ext/404212886/event_groups.o
 .debug_abbrev  0x00000000      0x2ef build/sam_v71_xult/production/_ext/404212886/event_groups.o
 .debug_loc     0x00000000      0xb00 build/sam_v71_xult/production/_ext/404212886/event_groups.o
 .debug_aranges
                0x00000000       0x60 build/sam_v71_xult/production/_ext/404212886/event_groups.o
 .debug_ranges  0x00000000       0x98 build/sam_v71_xult/production/_ext/404212886/event_groups.o
 .debug_line    0x00000000      0x5ce build/sam_v71_xult/production/_ext/404212886/event_groups.o
 .debug_str     0x00000000      0x1ac build/sam_v71_xult/production/_ext/404212886/event_groups.o
 .comment       0x00000000       0x54 build/sam_v71_xult/production/_ext/404212886/event_groups.o
 .debug_frame   0x00000000      0x100 build/sam_v71_xult/production/_ext/404212886/event_groups.o
 .ARM.attributes
                0x00000000       0x32 build/sam_v71_xult/production/_ext/404212886/event_groups.o
 .text          0x00000000        0x0 build/sam_v71_xult/production/_ext/404212886/stream_buffer.o
 .data          0x00000000        0x0 build/sam_v71_xult/production/_ext/404212886/stream_buffer.o
 .bss           0x00000000        0x0 build/sam_v71_xult/production/_ext/404212886/stream_buffer.o
 .text.prvBytesInBuffer
                0x00000000       0x12 build/sam_v71_xult/production/_ext/404212886/stream_buffer.o
 .text.prvWriteBytesToBuffer
                0x00000000       0x44 build/sam_v71_xult/production/_ext/404212886/stream_buffer.o
 .text.prvReadBytesFromBuffer
                0x00000000       0x50 build/sam_v71_xult/production/_ext/404212886/stream_buffer.o
 .text.xStreamBufferGenericCreate
                0x00000000       0x38 build/sam_v71_xult/production/_ext/404212886/stream_buffer.o
 .text.vStreamBufferDelete
                0x00000000       0x1a build/sam_v71_xult/production/_ext/404212886/stream_buffer.o
 .text.xStreamBufferReset
                0x00000000       0x44 build/sam_v71_xult/production/_ext/404212886/stream_buffer.o
 .text.xStreamBufferSetTriggerLevel
                0x00000000       0x16 build/sam_v71_xult/production/_ext/404212886/stream_buffer.o
 .text.xStreamBufferSpacesAvailable
                0x00000000       0x14 build/sam_v71_xult/production/_ext/404212886/stream_buffer.o
 .text.xStreamBufferBytesAvailable
                0x00000000        0x8 build/sam_v71_xult/production/_ext/404212886/stream_buffer.o
 .text.xStreamBufferSend
                0x00000000       0xde build/sam_v71_xult/production/_ext/404212886/stream_buffer.o
 .text.xStreamBufferSendFromISR
                0x00000000       0x9c build/sam_v71_xult/production/_ext/404212886/stream_buffer.o
 .text.xStreamBufferReceive
                0x00000000       0xbe build/sam_v71_xult/production/_ext/404212886/stream_buffer.o
 .text.xStreamBufferNextMessageLengthBytes
                0x00000000       0x36 build/sam_v71_xult/production/_ext/404212886/stream_buffer.o
 .text.xStreamBufferReceiveFromISR
                0x00000000       0x9e build/sam_v71_xult/production/_ext/404212886/stream_buffer.o
 .text.xStreamBufferIsEmpty
                0x00000000        0xe build/sam_v71_xult/production/_ext/404212886/stream_buffer.o
 .text.xStreamBufferIsFull
                0x00000000       0x18 build/sam_v71_xult/production/_ext/404212886/stream_buffer.o
 .text.xStreamBufferSendCompletedFromISR
                0x00000000       0x42 build/sam_v71_xult/production/_ext/404212886/stream_buffer.o
 .text.xStreamBufferReceiveCompletedFromISR
                0x00000000       0x42 build/sam_v71_xult/production/_ext/404212886/stream_buffer.o
 .debug_info    0x00000000     0x1d7b build/sam_v71_xult/production/_ext/404212886/stream_buffer.o
 .debug_abbrev  0x00000000      0x39f build/sam_v71_xult/production/_ext/404212886/stream_buffer.o
 .debug_loc     0x00000000     0x1c0b build/sam_v71_xult/production/_ext/404212886/stream_buffer.o
 .debug_aranges
                0x00000000       0xa8 build/sam_v71_xult/production/_ext/404212886/stream_buffer.o
 .debug_ranges  0x00000000      0x128 build/sam_v71_xult/production/_ext/404212886/stream_buffer.o
 .debug_line    0x00000000      0xb44 build/sam_v71_xult/production/_ext/404212886/stream_buffer.o
 .debug_str     0x00000000      0x234 build/sam_v71_xult/production/_ext/404212886/stream_buffer.o
 .comment       0x00000000       0x54 build/sam_v71_xult/production/_ext/404212886/stream_buffer.o
 .debug_frame   0x00000000      0x230 build/sam_v71_xult/production/_ext/404212886/stream_buffer.o
 .ARM.attributes
                0x00000000       0x32 build/sam_v71_xult/production/_ext/404212886/stream_buffer.o
 .text          0x00000000        0x0 build/sam_v71_xult/production/_ext/1360937237/main_v71.o
 .data          0x00000000        0x0 build/sam_v71_xult/production/_ext/1360937237/main_v71.o
 .bss           0x00000000        0x0 build/sam_v71_xult/production/_ext/1360937237/main_v71.o
 .text          0x00000000        0x0 build/sam_v71_xult/production/_ext/1360937237/tarea_principal.o
 .data          0x00000000        0x0 build/sam_v71_xult/production/_ext/1360937237/tarea_principal.o
 .bss           0x00000000        0x0 build/sam_v71_xult/production/_ext/1360937237/tarea_principal.o
 .text          0x00000000        0x0 build/sam_v71_xult/production/_ext/1563530619/mcan_fd_interrupt.o
 .data          0x00000000        0x0 build/sam_v71_xult/production/_ext/1563530619/mcan_fd_interrupt.o
 .bss           0x00000000        0x0 build/sam_v71_xult/production/_ext/1563530619/mcan_fd_interrupt.o
 .text          0x00000000        0x0 build/sam_v71_xult/production/_ext/1522961716/Uart1_FreeRTOS.o
 .data          0x00000000        0x0 build/sam_v71_xult/production/_ext/1522961716/Uart1_FreeRTOS.o
 .bss           0x00000000        0x0 build/sam_v71_xult/production/_ext/1522961716/Uart1_FreeRTOS.o
 .text.TAREA_UART_Initialize
                0x00000000        0xc build/sam_v71_xult/production/_ext/1522961716/Uart1_FreeRTOS.o
 .text          0x00000000        0x0 c:/program files/microchip/xc32/v4.00/bin/bin/../../lib/gcc/pic32c/8.3.1/../../../../pic32c/lib/thumb/v7e-m+dp/hard\libpic32c.a(data_init.o)
 .data          0x00000000        0x0 c:/program files/microchip/xc32/v4.00/bin/bin/../../lib/gcc/pic32c/8.3.1/../../../../pic32c/lib/thumb/v7e-m+dp/hard\libpic32c.a(data_init.o)
 .xc_stack_usage
                0x00000000       0x2a c:/program files/microchip/xc32/v4.00/bin/bin/../../lib/gcc/pic32c/8.3.1/../../../../pic32c/lib/thumb/v7e-m+dp/hard\libpic32c.a(data_init.o)
 .xc_stack_usage.hdr
                0x00000000        0xe c:/program files/microchip/xc32/v4.00/bin/bin/../../lib/gcc/pic32c/8.3.1/../../../../pic32c/lib/thumb/v7e-m+dp/hard\libpic32c.a(data_init.o)
 .text          0x00000000        0x0 c:/program files/microchip/xc32/v4.00/bin/bin/../../lib/gcc/pic32c/8.3.1/../../../../pic32c/lib/thumb/v7e-m+dp/hard\libc-musl.a(__libc_start_main.o)
 .data          0x00000000        0x0 c:/program files/microchip/xc32/v4.00/bin/bin/../../lib/gcc/pic32c/8.3.1/../../../../pic32c/lib/thumb/v7e-m+dp/hard\libc-musl.a(__libc_start_main.o)
 .bss           0x00000000        0x0 c:/program files/microchip/xc32/v4.00/bin/bin/../../lib/gcc/pic32c/8.3.1/../../../../pic32c/lib/thumb/v7e-m+dp/hard\libc-musl.a(__libc_start_main.o)
 .xc_stack_usage
                0x00000000       0x34 c:/program files/microchip/xc32/v4.00/bin/bin/../../lib/gcc/pic32c/8.3.1/../../../../pic32c/lib/thumb/v7e-m+dp/hard\libc-musl.a(__libc_start_main.o)
 .xc_stack_usage.hdr
                0x00000000        0xe c:/program files/microchip/xc32/v4.00/bin/bin/../../lib/gcc/pic32c/8.3.1/../../../../pic32c/lib/thumb/v7e-m+dp/hard\libc-musl.a(__libc_start_main.o)
 .text          0x00000000        0x0 c:/program files/microchip/xc32/v4.00/bin/bin/../../lib/gcc/pic32c/8.3.1/../../../../pic32c/lib/thumb/v7e-m+dp/hard\libc-musl.a(libc.o)
 .data          0x00000000        0x0 c:/program files/microchip/xc32/v4.00/bin/bin/../../lib/gcc/pic32c/8.3.1/../../../../pic32c/lib/thumb/v7e-m+dp/hard\libc-musl.a(libc.o)
 .xc_stack_usage.hdr
                0x00000000        0xe c:/program files/microchip/xc32/v4.00/bin/bin/../../lib/gcc/pic32c/8.3.1/../../../../pic32c/lib/thumb/v7e-m+dp/hard\libc-musl.a(libc.o)
 .text          0x00000000        0x0 c:/program files/microchip/xc32/v4.00/bin/bin/../../lib/gcc/pic32c/8.3.1/../../../../pic32c/lib/thumb/v7e-m+dp/hard\libc-musl.a(__sio_sprintf_doux.o)
 .data          0x00000000        0x0 c:/program files/microchip/xc32/v4.00/bin/bin/../../lib/gcc/pic32c/8.3.1/../../../../pic32c/lib/thumb/v7e-m+dp/hard\libc-musl.a(__sio_sprintf_doux.o)
 .bss           0x00000000        0x0 c:/program files/microchip/xc32/v4.00/bin/bin/../../lib/gcc/pic32c/8.3.1/../../../../pic32c/lib/thumb/v7e-m+dp/hard\libc-musl.a(__sio_sprintf_doux.o)
 .xc_stack_usage
                0x00000000       0x3c c:/program files/microchip/xc32/v4.00/bin/bin/../../lib/gcc/pic32c/8.3.1/../../../../pic32c/lib/thumb/v7e-m+dp/hard\libc-musl.a(__sio_sprintf_doux.o)
 .text.__sio_sprintf_doux
                0x00000000       0x1a c:/program files/microchip/xc32/v4.00/bin/bin/../../lib/gcc/pic32c/8.3.1/../../../../pic32c/lib/thumb/v7e-m+dp/hard\libc-musl.a(__sio_sprintf_doux.o)
 .xc_stack_usage.hdr
                0x00000000        0xe c:/program files/microchip/xc32/v4.00/bin/bin/../../lib/gcc/pic32c/8.3.1/../../../../pic32c/lib/thumb/v7e-m+dp/hard\libc-musl.a(__sio_sprintf_doux.o)
 .text          0x00000000        0x0 c:/program files/microchip/xc32/v4.00/bin/bin/../../lib/gcc/pic32c/8.3.1/../../../../pic32c/lib/thumb/v7e-m+dp/hard\libc-musl.a(__fmt_d.o)
 .data          0x00000000        0x0 c:/program files/microchip/xc32/v4.00/bin/bin/../../lib/gcc/pic32c/8.3.1/../../../../pic32c/lib/thumb/v7e-m+dp/hard\libc-musl.a(__fmt_d.o)
 .bss           0x00000000        0x0 c:/program files/microchip/xc32/v4.00/bin/bin/../../lib/gcc/pic32c/8.3.1/../../../../pic32c/lib/thumb/v7e-m+dp/hard\libc-musl.a(__fmt_d.o)
 .xc_stack_usage
                0x00000000       0x15 c:/program files/microchip/xc32/v4.00/bin/bin/../../lib/gcc/pic32c/8.3.1/../../../../pic32c/lib/thumb/v7e-m+dp/hard\libc-musl.a(__fmt_d.o)
 .xc_stack_usage.hdr
                0x00000000        0xe c:/program files/microchip/xc32/v4.00/bin/bin/../../lib/gcc/pic32c/8.3.1/../../../../pic32c/lib/thumb/v7e-m+dp/hard\libc-musl.a(__fmt_d.o)
 .text          0x00000000        0x0 c:/program files/microchip/xc32/v4.00/bin/bin/../../lib/gcc/pic32c/8.3.1/../../../../pic32c/lib/thumb/v7e-m+dp/hard\libc-musl.a(__fmt_o.o)
 .data          0x00000000        0x0 c:/program files/microchip/xc32/v4.00/bin/bin/../../lib/gcc/pic32c/8.3.1/../../../../pic32c/lib/thumb/v7e-m+dp/hard\libc-musl.a(__fmt_o.o)
 .bss           0x00000000        0x0 c:/program files/microchip/xc32/v4.00/bin/bin/../../lib/gcc/pic32c/8.3.1/../../../../pic32c/lib/thumb/v7e-m+dp/hard\libc-musl.a(__fmt_o.o)
 .xc_stack_usage
                0x00000000       0x15 c:/program files/microchip/xc32/v4.00/bin/bin/../../lib/gcc/pic32c/8.3.1/../../../../pic32c/lib/thumb/v7e-m+dp/hard\libc-musl.a(__fmt_o.o)
 .xc_stack_usage.hdr
                0x00000000        0xe c:/program files/microchip/xc32/v4.00/bin/bin/../../lib/gcc/pic32c/8.3.1/../../../../pic32c/lib/thumb/v7e-m+dp/hard\libc-musl.a(__fmt_o.o)
 .text          0x00000000        0x0 c:/program files/microchip/xc32/v4.00/bin/bin/../../lib/gcc/pic32c/8.3.1/../../../../pic32c/lib/thumb/v7e-m+dp/hard\libc-musl.a(__fmt_s.o)
 .data          0x00000000        0x0 c:/program files/microchip/xc32/v4.00/bin/bin/../../lib/gcc/pic32c/8.3.1/../../../../pic32c/lib/thumb/v7e-m+dp/hard\libc-musl.a(__fmt_s.o)
 .bss           0x00000000        0x0 c:/program files/microchip/xc32/v4.00/bin/bin/../../lib/gcc/pic32c/8.3.1/../../../../pic32c/lib/thumb/v7e-m+dp/hard\libc-musl.a(__fmt_s.o)
 .xc_stack_usage
                0x00000000       0x15 c:/program files/microchip/xc32/v4.00/bin/bin/../../lib/gcc/pic32c/8.3.1/../../../../pic32c/lib/thumb/v7e-m+dp/hard\libc-musl.a(__fmt_s.o)
 .xc_stack_usage.hdr
                0x00000000        0xe c:/program files/microchip/xc32/v4.00/bin/bin/../../lib/gcc/pic32c/8.3.1/../../../../pic32c/lib/thumb/v7e-m+dp/hard\libc-musl.a(__fmt_s.o)
 .text          0x00000000        0x0 c:/program files/microchip/xc32/v4.00/bin/bin/../../lib/gcc/pic32c/8.3.1/../../../../pic32c/lib/thumb/v7e-m+dp/hard\libc-musl.a(__fmt_u.o)
 .data          0x00000000        0x0 c:/program files/microchip/xc32/v4.00/bin/bin/../../lib/gcc/pic32c/8.3.1/../../../../pic32c/lib/thumb/v7e-m+dp/hard\libc-musl.a(__fmt_u.o)
 .bss           0x00000000        0x0 c:/program files/microchip/xc32/v4.00/bin/bin/../../lib/gcc/pic32c/8.3.1/../../../../pic32c/lib/thumb/v7e-m+dp/hard\libc-musl.a(__fmt_u.o)
 .xc_stack_usage
                0x00000000       0x2a c:/program files/microchip/xc32/v4.00/bin/bin/../../lib/gcc/pic32c/8.3.1/../../../../pic32c/lib/thumb/v7e-m+dp/hard\libc-musl.a(__fmt_u.o)
 .xc_stack_usage.hdr
                0x00000000        0xe c:/program files/microchip/xc32/v4.00/bin/bin/../../lib/gcc/pic32c/8.3.1/../../../../pic32c/lib/thumb/v7e-m+dp/hard\libc-musl.a(__fmt_u.o)
 .text          0x00000000        0x0 c:/program files/microchip/xc32/v4.00/bin/bin/../../lib/gcc/pic32c/8.3.1/../../../../pic32c/lib/thumb/v7e-m+dp/hard\libc-musl.a(__fmt_x.o)
 .data          0x00000000        0x0 c:/program files/microchip/xc32/v4.00/bin/bin/../../lib/gcc/pic32c/8.3.1/../../../../pic32c/lib/thumb/v7e-m+dp/hard\libc-musl.a(__fmt_x.o)
 .bss           0x00000000        0x0 c:/program files/microchip/xc32/v4.00/bin/bin/../../lib/gcc/pic32c/8.3.1/../../../../pic32c/lib/thumb/v7e-m+dp/hard\libc-musl.a(__fmt_x.o)
 .xc_stack_usage
                0x00000000       0x15 c:/program files/microchip/xc32/v4.00/bin/bin/../../lib/gcc/pic32c/8.3.1/../../../../pic32c/lib/thumb/v7e-m+dp/hard\libc-musl.a(__fmt_x.o)
 .xc_stack_usage.hdr
                0x00000000        0xe c:/program files/microchip/xc32/v4.00/bin/bin/../../lib/gcc/pic32c/8.3.1/../../../../pic32c/lib/thumb/v7e-m+dp/hard\libc-musl.a(__fmt_x.o)
 .text          0x00000000        0x0 c:/program files/microchip/xc32/v4.00/bin/bin/../../lib/gcc/pic32c/8.3.1/../../../../pic32c/lib/thumb/v7e-m+dp/hard\libc-musl.a(__printf_core.o)
 .data          0x00000000        0x0 c:/program files/microchip/xc32/v4.00/bin/bin/../../lib/gcc/pic32c/8.3.1/../../../../pic32c/lib/thumb/v7e-m+dp/hard\libc-musl.a(__printf_core.o)
 .bss           0x00000000        0x0 c:/program files/microchip/xc32/v4.00/bin/bin/../../lib/gcc/pic32c/8.3.1/../../../../pic32c/lib/thumb/v7e-m+dp/hard\libc-musl.a(__printf_core.o)
 .xc_stack_usage
                0x00000000       0xaf c:/program files/microchip/xc32/v4.00/bin/bin/../../lib/gcc/pic32c/8.3.1/../../../../pic32c/lib/thumb/v7e-m+dp/hard\libc-musl.a(__printf_core.o)
 .text.__dummy_fmt3
                0x00000000        0x4 c:/program files/microchip/xc32/v4.00/bin/bin/../../lib/gcc/pic32c/8.3.1/../../../../pic32c/lib/thumb/v7e-m+dp/hard\libc-musl.a(__printf_core.o)
 .text.__dummy_fmts
                0x00000000        0x4 c:/program files/microchip/xc32/v4.00/bin/bin/../../lib/gcc/pic32c/8.3.1/../../../../pic32c/lib/thumb/v7e-m+dp/hard\libc-musl.a(__printf_core.o)
 .xc_stack_usage.hdr
                0x00000000        0xe c:/program files/microchip/xc32/v4.00/bin/bin/../../lib/gcc/pic32c/8.3.1/../../../../pic32c/lib/thumb/v7e-m+dp/hard\libc-musl.a(__printf_core.o)
 .text          0x00000000        0x0 c:/program files/microchip/xc32/v4.00/bin/bin/../../lib/gcc/pic32c/8.3.1/../../../../pic32c/lib/thumb/v7e-m+dp/hard\libc-musl.a(atoi.o)
 .data          0x00000000        0x0 c:/program files/microchip/xc32/v4.00/bin/bin/../../lib/gcc/pic32c/8.3.1/../../../../pic32c/lib/thumb/v7e-m+dp/hard\libc-musl.a(atoi.o)
 .bss           0x00000000        0x0 c:/program files/microchip/xc32/v4.00/bin/bin/../../lib/gcc/pic32c/8.3.1/../../../../pic32c/lib/thumb/v7e-m+dp/hard\libc-musl.a(atoi.o)
 .xc_stack_usage
                0x00000000       0x12 c:/program files/microchip/xc32/v4.00/bin/bin/../../lib/gcc/pic32c/8.3.1/../../../../pic32c/lib/thumb/v7e-m+dp/hard\libc-musl.a(atoi.o)
 .xc_stack_usage.hdr
                0x00000000        0xe c:/program files/microchip/xc32/v4.00/bin/bin/../../lib/gcc/pic32c/8.3.1/../../../../pic32c/lib/thumb/v7e-m+dp/hard\libc-musl.a(atoi.o)
 .text          0x00000000        0x0 c:/program files/microchip/xc32/v4.00/bin/bin/../../lib/gcc/pic32c/8.3.1/../../../../pic32c/lib/thumb/v7e-m+dp/hard\libc-musl.a(memcpy.o)
 .data          0x00000000        0x0 c:/program files/microchip/xc32/v4.00/bin/bin/../../lib/gcc/pic32c/8.3.1/../../../../pic32c/lib/thumb/v7e-m+dp/hard\libc-musl.a(memcpy.o)
 .bss           0x00000000        0x0 c:/program files/microchip/xc32/v4.00/bin/bin/../../lib/gcc/pic32c/8.3.1/../../../../pic32c/lib/thumb/v7e-m+dp/hard\libc-musl.a(memcpy.o)
 .xc_stack_usage
                0x00000000       0x14 c:/program files/microchip/xc32/v4.00/bin/bin/../../lib/gcc/pic32c/8.3.1/../../../../pic32c/lib/thumb/v7e-m+dp/hard\libc-musl.a(memcpy.o)
 .xc_stack_usage.hdr
                0x00000000        0xe c:/program files/microchip/xc32/v4.00/bin/bin/../../lib/gcc/pic32c/8.3.1/../../../../pic32c/lib/thumb/v7e-m+dp/hard\libc-musl.a(memcpy.o)
 .text          0x00000000        0x0 c:/program files/microchip/xc32/v4.00/bin/bin/../../lib/gcc/pic32c/8.3.1/../../../../pic32c/lib/thumb/v7e-m+dp/hard\libc-musl.a(memset.o)
 .data          0x00000000        0x0 c:/program files/microchip/xc32/v4.00/bin/bin/../../lib/gcc/pic32c/8.3.1/../../../../pic32c/lib/thumb/v7e-m+dp/hard\libc-musl.a(memset.o)
 .bss           0x00000000        0x0 c:/program files/microchip/xc32/v4.00/bin/bin/../../lib/gcc/pic32c/8.3.1/../../../../pic32c/lib/thumb/v7e-m+dp/hard\libc-musl.a(memset.o)
 .xc_stack_usage
                0x00000000       0x14 c:/program files/microchip/xc32/v4.00/bin/bin/../../lib/gcc/pic32c/8.3.1/../../../../pic32c/lib/thumb/v7e-m+dp/hard\libc-musl.a(memset.o)
 .xc_stack_usage.hdr
                0x00000000        0xe c:/program files/microchip/xc32/v4.00/bin/bin/../../lib/gcc/pic32c/8.3.1/../../../../pic32c/lib/thumb/v7e-m+dp/hard\libc-musl.a(memset.o)
 .text          0x00000000        0x0 c:/program files/microchip/xc32/v4.00/bin/bin/../../lib/gcc/pic32c/8.3.1/../../../../pic32c/lib/thumb/v7e-m+dp/hard\libc-musl.a(strlen.o)
 .data          0x00000000        0x0 c:/program files/microchip/xc32/v4.00/bin/bin/../../lib/gcc/pic32c/8.3.1/../../../../pic32c/lib/thumb/v7e-m+dp/hard\libc-musl.a(strlen.o)
 .bss           0x00000000        0x0 c:/program files/microchip/xc32/v4.00/bin/bin/../../lib/gcc/pic32c/8.3.1/../../../../pic32c/lib/thumb/v7e-m+dp/hard\libc-musl.a(strlen.o)
 .xc_stack_usage
                0x00000000       0x14 c:/program files/microchip/xc32/v4.00/bin/bin/../../lib/gcc/pic32c/8.3.1/../../../../pic32c/lib/thumb/v7e-m+dp/hard\libc-musl.a(strlen.o)
 .xc_stack_usage.hdr
                0x00000000        0xe c:/program files/microchip/xc32/v4.00/bin/bin/../../lib/gcc/pic32c/8.3.1/../../../../pic32c/lib/thumb/v7e-m+dp/hard\libc-musl.a(strlen.o)
 .text          0x00000000        0x0 c:/program files/microchip/xc32/v4.00/bin/bin/../../lib/gcc/pic32c/8.3.1/../../../../pic32c/lib/thumb/v7e-m+dp/hard\libc-musl.a(tolower.o)
 .data          0x00000000        0x0 c:/program files/microchip/xc32/v4.00/bin/bin/../../lib/gcc/pic32c/8.3.1/../../../../pic32c/lib/thumb/v7e-m+dp/hard\libc-musl.a(tolower.o)
 .bss           0x00000000        0x0 c:/program files/microchip/xc32/v4.00/bin/bin/../../lib/gcc/pic32c/8.3.1/../../../../pic32c/lib/thumb/v7e-m+dp/hard\libc-musl.a(tolower.o)
 .xc_stack_usage
                0x00000000       0x2e c:/program files/microchip/xc32/v4.00/bin/bin/../../lib/gcc/pic32c/8.3.1/../../../../pic32c/lib/thumb/v7e-m+dp/hard\libc-musl.a(tolower.o)
 .text.__tolower_l
                0x00000000        0x4 c:/program files/microchip/xc32/v4.00/bin/bin/../../lib/gcc/pic32c/8.3.1/../../../../pic32c/lib/thumb/v7e-m+dp/hard\libc-musl.a(tolower.o)
 .xc_stack_usage.hdr
                0x00000000        0xe c:/program files/microchip/xc32/v4.00/bin/bin/../../lib/gcc/pic32c/8.3.1/../../../../pic32c/lib/thumb/v7e-m+dp/hard\libc-musl.a(tolower.o)
 .text          0x00000000        0x0 c:/program files/microchip/xc32/v4.00/bin/bin/../../lib/gcc/pic32c/8.3.1/../../../../pic32c/lib/thumb/v7e-m+dp/hard\libc-musl.a(toupper.o)
 .data          0x00000000        0x0 c:/program files/microchip/xc32/v4.00/bin/bin/../../lib/gcc/pic32c/8.3.1/../../../../pic32c/lib/thumb/v7e-m+dp/hard\libc-musl.a(toupper.o)
 .bss           0x00000000        0x0 c:/program files/microchip/xc32/v4.00/bin/bin/../../lib/gcc/pic32c/8.3.1/../../../../pic32c/lib/thumb/v7e-m+dp/hard\libc-musl.a(toupper.o)
 .xc_stack_usage
                0x00000000       0x2e c:/program files/microchip/xc32/v4.00/bin/bin/../../lib/gcc/pic32c/8.3.1/../../../../pic32c/lib/thumb/v7e-m+dp/hard\libc-musl.a(toupper.o)
 .text.__toupper_l
                0x00000000        0x4 c:/program files/microchip/xc32/v4.00/bin/bin/../../lib/gcc/pic32c/8.3.1/../../../../pic32c/lib/thumb/v7e-m+dp/hard\libc-musl.a(toupper.o)
 .xc_stack_usage.hdr
                0x00000000        0xe c:/program files/microchip/xc32/v4.00/bin/bin/../../lib/gcc/pic32c/8.3.1/../../../../pic32c/lib/thumb/v7e-m+dp/hard\libc-musl.a(toupper.o)
 .text          0x00000000        0x0 c:/program files/microchip/xc32/v4.00/bin/bin/../../lib/gcc/pic32c/8.3.1/../../../../pic32c/lib/thumb/v7e-m+dp/hard\libc-musl.a(__environ.o)
 .data          0x00000000        0x0 c:/program files/microchip/xc32/v4.00/bin/bin/../../lib/gcc/pic32c/8.3.1/../../../../pic32c/lib/thumb/v7e-m+dp/hard\libc-musl.a(__environ.o)
 .xc_stack_usage.hdr
                0x00000000        0xe c:/program files/microchip/xc32/v4.00/bin/bin/../../lib/gcc/pic32c/8.3.1/../../../../pic32c/lib/thumb/v7e-m+dp/hard\libc-musl.a(__environ.o)
 .text          0x00000000        0x0 c:/program files/microchip/xc32/v4.00/bin/bin/../../lib/gcc/pic32c/8.3.1/../../../../pic32c/lib/thumb/v7e-m+dp/hard\libc-musl.a(__errno_location.o)
 .data          0x00000000        0x0 c:/program files/microchip/xc32/v4.00/bin/bin/../../lib/gcc/pic32c/8.3.1/../../../../pic32c/lib/thumb/v7e-m+dp/hard\libc-musl.a(__errno_location.o)
 .xc_stack_usage.hdr
                0x00000000        0xe c:/program files/microchip/xc32/v4.00/bin/bin/../../lib/gcc/pic32c/8.3.1/../../../../pic32c/lib/thumb/v7e-m+dp/hard\libc-musl.a(__errno_location.o)
 .text          0x00000000        0x0 c:/program files/microchip/xc32/v4.00/bin/bin/../../lib/gcc/pic32c/8.3.1/../../../../pic32c/lib/thumb/v7e-m+dp/hard\libc-musl.a(__int_vsprintf.o)
 .data          0x00000000        0x0 c:/program files/microchip/xc32/v4.00/bin/bin/../../lib/gcc/pic32c/8.3.1/../../../../pic32c/lib/thumb/v7e-m+dp/hard\libc-musl.a(__int_vsprintf.o)
 .bss           0x00000000        0x0 c:/program files/microchip/xc32/v4.00/bin/bin/../../lib/gcc/pic32c/8.3.1/../../../../pic32c/lib/thumb/v7e-m+dp/hard\libc-musl.a(__int_vsprintf.o)
 .xc_stack_usage
                0x00000000       0x18 c:/program files/microchip/xc32/v4.00/bin/bin/../../lib/gcc/pic32c/8.3.1/../../../../pic32c/lib/thumb/v7e-m+dp/hard\libc-musl.a(__int_vsprintf.o)
 .xc_stack_usage.hdr
                0x00000000        0xe c:/program files/microchip/xc32/v4.00/bin/bin/../../lib/gcc/pic32c/8.3.1/../../../../pic32c/lib/thumb/v7e-m+dp/hard\libc-musl.a(__int_vsprintf.o)
 .text          0x00000000        0x0 c:/program files/microchip/xc32/v4.00/bin/bin/../../lib/gcc/pic32c/8.3.1/../../../../pic32c/lib/thumb/v7e-m+dp/hard\libc-musl.a(__pop_float.o)
 .data          0x00000000        0x0 c:/program files/microchip/xc32/v4.00/bin/bin/../../lib/gcc/pic32c/8.3.1/../../../../pic32c/lib/thumb/v7e-m+dp/hard\libc-musl.a(__pop_float.o)
 .bss           0x00000000        0x0 c:/program files/microchip/xc32/v4.00/bin/bin/../../lib/gcc/pic32c/8.3.1/../../../../pic32c/lib/thumb/v7e-m+dp/hard\libc-musl.a(__pop_float.o)
 .xc_stack_usage
                0x00000000       0x19 c:/program files/microchip/xc32/v4.00/bin/bin/../../lib/gcc/pic32c/8.3.1/../../../../pic32c/lib/thumb/v7e-m+dp/hard\libc-musl.a(__pop_float.o)
 .xc_stack_usage.hdr
                0x00000000        0xe c:/program files/microchip/xc32/v4.00/bin/bin/../../lib/gcc/pic32c/8.3.1/../../../../pic32c/lib/thumb/v7e-m+dp/hard\libc-musl.a(__pop_float.o)
 .text          0x00000000        0x0 c:/program files/microchip/xc32/v4.00/bin/bin/../../lib/gcc/pic32c/8.3.1/../../../../pic32c/lib/thumb/v7e-m+dp/hard\libc-musl.a(__pop_int.o)
 .data          0x00000000        0x0 c:/program files/microchip/xc32/v4.00/bin/bin/../../lib/gcc/pic32c/8.3.1/../../../../pic32c/lib/thumb/v7e-m+dp/hard\libc-musl.a(__pop_int.o)
 .bss           0x00000000        0x0 c:/program files/microchip/xc32/v4.00/bin/bin/../../lib/gcc/pic32c/8.3.1/../../../../pic32c/lib/thumb/v7e-m+dp/hard\libc-musl.a(__pop_int.o)
 .xc_stack_usage
                0x00000000       0x17 c:/program files/microchip/xc32/v4.00/bin/bin/../../lib/gcc/pic32c/8.3.1/../../../../pic32c/lib/thumb/v7e-m+dp/hard\libc-musl.a(__pop_int.o)
 .xc_stack_usage.hdr
                0x00000000        0xe c:/program files/microchip/xc32/v4.00/bin/bin/../../lib/gcc/pic32c/8.3.1/../../../../pic32c/lib/thumb/v7e-m+dp/hard\libc-musl.a(__pop_int.o)
 .text          0x00000000        0x0 c:/program files/microchip/xc32/v4.00/bin/bin/../../lib/gcc/pic32c/8.3.1/../../../../pic32c/lib/thumb/v7e-m+dp/hard\libc-musl.a(__pop_ptr.o)
 .data          0x00000000        0x0 c:/program files/microchip/xc32/v4.00/bin/bin/../../lib/gcc/pic32c/8.3.1/../../../../pic32c/lib/thumb/v7e-m+dp/hard\libc-musl.a(__pop_ptr.o)
 .bss           0x00000000        0x0 c:/program files/microchip/xc32/v4.00/bin/bin/../../lib/gcc/pic32c/8.3.1/../../../../pic32c/lib/thumb/v7e-m+dp/hard\libc-musl.a(__pop_ptr.o)
 .xc_stack_usage
                0x00000000       0x17 c:/program files/microchip/xc32/v4.00/bin/bin/../../lib/gcc/pic32c/8.3.1/../../../../pic32c/lib/thumb/v7e-m+dp/hard\libc-musl.a(__pop_ptr.o)
 .xc_stack_usage.hdr
                0x00000000        0xe c:/program files/microchip/xc32/v4.00/bin/bin/../../lib/gcc/pic32c/8.3.1/../../../../pic32c/lib/thumb/v7e-m+dp/hard\libc-musl.a(__pop_ptr.o)
 .text          0x00000000        0x0 c:/program files/microchip/xc32/v4.00/bin/bin/../../lib/gcc/pic32c/8.3.1/../../../../pic32c/lib/thumb/v7e-m+dp/hard\libc-musl.a(__int_vsnprintf.o)
 .data          0x00000000        0x0 c:/program files/microchip/xc32/v4.00/bin/bin/../../lib/gcc/pic32c/8.3.1/../../../../pic32c/lib/thumb/v7e-m+dp/hard\libc-musl.a(__int_vsnprintf.o)
 .bss           0x00000000        0x0 c:/program files/microchip/xc32/v4.00/bin/bin/../../lib/gcc/pic32c/8.3.1/../../../../pic32c/lib/thumb/v7e-m+dp/hard\libc-musl.a(__int_vsnprintf.o)
 .xc_stack_usage
                0x00000000       0x19 c:/program files/microchip/xc32/v4.00/bin/bin/../../lib/gcc/pic32c/8.3.1/../../../../pic32c/lib/thumb/v7e-m+dp/hard\libc-musl.a(__int_vsnprintf.o)
 .xc_stack_usage.hdr
                0x00000000        0xe c:/program files/microchip/xc32/v4.00/bin/bin/../../lib/gcc/pic32c/8.3.1/../../../../pic32c/lib/thumb/v7e-m+dp/hard\libc-musl.a(__int_vsnprintf.o)
 .text          0x00000000        0x0 c:/program files/microchip/xc32/v4.00/bin/bin/../../lib/gcc/pic32c/8.3.1/../../../../pic32c/lib/thumb/v7e-m+dp/hard\libc-musl.a(__int_vfprintf.o)
 .data          0x00000000        0x0 c:/program files/microchip/xc32/v4.00/bin/bin/../../lib/gcc/pic32c/8.3.1/../../../../pic32c/lib/thumb/v7e-m+dp/hard\libc-musl.a(__int_vfprintf.o)
 .bss           0x00000000        0x0 c:/program files/microchip/xc32/v4.00/bin/bin/../../lib/gcc/pic32c/8.3.1/../../../../pic32c/lib/thumb/v7e-m+dp/hard\libc-musl.a(__int_vfprintf.o)
 .xc_stack_usage
                0x00000000       0x18 c:/program files/microchip/xc32/v4.00/bin/bin/../../lib/gcc/pic32c/8.3.1/../../../../pic32c/lib/thumb/v7e-m+dp/hard\libc-musl.a(__int_vfprintf.o)
 .xc_stack_usage.hdr
                0x00000000        0xe c:/program files/microchip/xc32/v4.00/bin/bin/../../lib/gcc/pic32c/8.3.1/../../../../pic32c/lib/thumb/v7e-m+dp/hard\libc-musl.a(__int_vfprintf.o)
 .data          0x00000000        0x0 c:/program files/microchip/xc32/v4.00/bin/bin/../../lib/gcc/pic32c/8.3.1/thumb/v7e-m+dp/hard\libgcc.a(_aeabi_uldivmod.o)
 .bss           0x00000000        0x0 c:/program files/microchip/xc32/v4.00/bin/bin/../../lib/gcc/pic32c/8.3.1/thumb/v7e-m+dp/hard\libgcc.a(_aeabi_uldivmod.o)
 .xc_stack_usage.hdr
                0x00000000        0xe c:/program files/microchip/xc32/v4.00/bin/bin/../../lib/gcc/pic32c/8.3.1/thumb/v7e-m+dp/hard\libgcc.a(_aeabi_uldivmod.o)
 .xc_stack_usage
                0x00000000       0x1e c:/program files/microchip/xc32/v4.00/bin/bin/../../lib/gcc/pic32c/8.3.1/thumb/v7e-m+dp/hard\libgcc.a(_aeabi_uldivmod.o)
 .data          0x00000000        0x0 c:/program files/microchip/xc32/v4.00/bin/bin/../../lib/gcc/pic32c/8.3.1/thumb/v7e-m+dp/hard\libgcc.a(_udivmoddi4.o)
 .bss           0x00000000        0x0 c:/program files/microchip/xc32/v4.00/bin/bin/../../lib/gcc/pic32c/8.3.1/thumb/v7e-m+dp/hard\libgcc.a(_udivmoddi4.o)
 .xc_stack_usage
                0x00000000       0x1a c:/program files/microchip/xc32/v4.00/bin/bin/../../lib/gcc/pic32c/8.3.1/thumb/v7e-m+dp/hard\libgcc.a(_udivmoddi4.o)
 .ARM.extab     0x00000000        0x0 c:/program files/microchip/xc32/v4.00/bin/bin/../../lib/gcc/pic32c/8.3.1/thumb/v7e-m+dp/hard\libgcc.a(_udivmoddi4.o)
 .xc_stack_usage.hdr
                0x00000000        0xe c:/program files/microchip/xc32/v4.00/bin/bin/../../lib/gcc/pic32c/8.3.1/thumb/v7e-m+dp/hard\libgcc.a(_udivmoddi4.o)
 .data          0x00000000        0x0 c:/program files/microchip/xc32/v4.00/bin/bin/../../lib/gcc/pic32c/8.3.1/thumb/v7e-m+dp/hard\libgcc.a(_dvmd_tls.o)
 .bss           0x00000000        0x0 c:/program files/microchip/xc32/v4.00/bin/bin/../../lib/gcc/pic32c/8.3.1/thumb/v7e-m+dp/hard\libgcc.a(_dvmd_tls.o)
 .xc_stack_usage.hdr
                0x00000000        0xe c:/program files/microchip/xc32/v4.00/bin/bin/../../lib/gcc/pic32c/8.3.1/thumb/v7e-m+dp/hard\libgcc.a(_dvmd_tls.o)
 .xc_stack_usage
                0x00000000       0x36 c:/program files/microchip/xc32/v4.00/bin/bin/../../lib/gcc/pic32c/8.3.1/thumb/v7e-m+dp/hard\libgcc.a(_dvmd_tls.o)
 .text          0x00000000        0x0 c:/program files/microchip/xc32/v4.00/bin/bin/../../lib/gcc/pic32c/8.3.1/thumb/v7e-m+dp/hard/crtend.o
 .data          0x00000000        0x0 c:/program files/microchip/xc32/v4.00/bin/bin/../../lib/gcc/pic32c/8.3.1/thumb/v7e-m+dp/hard/crtend.o
 .bss           0x00000000        0x0 c:/program files/microchip/xc32/v4.00/bin/bin/../../lib/gcc/pic32c/8.3.1/thumb/v7e-m+dp/hard/crtend.o
 .eh_frame      0x00000000        0x4 c:/program files/microchip/xc32/v4.00/bin/bin/../../lib/gcc/pic32c/8.3.1/thumb/v7e-m+dp/hard/crtend.o
 .xc_stack_usage.hdr
                0x00000000        0xe c:/program files/microchip/xc32/v4.00/bin/bin/../../lib/gcc/pic32c/8.3.1/thumb/v7e-m+dp/hard/crtend.o
 .comment       0x00000000       0x54 c:/program files/microchip/xc32/v4.00/bin/bin/../../lib/gcc/pic32c/8.3.1/thumb/v7e-m+dp/hard/crtend.o
 .ARM.attributes
                0x00000000       0x30 c:/program files/microchip/xc32/v4.00/bin/bin/../../lib/gcc/pic32c/8.3.1/thumb/v7e-m+dp/hard/crtend.o
 .text          0x00000000        0x0 c:/program files/microchip/xc32/v4.00/bin/bin/../../lib/gcc/pic32c/8.3.1/thumb/v7e-m+dp/hard/crtn.o
 .data          0x00000000        0x0 c:/program files/microchip/xc32/v4.00/bin/bin/../../lib/gcc/pic32c/8.3.1/thumb/v7e-m+dp/hard/crtn.o
 .bss           0x00000000        0x0 c:/program files/microchip/xc32/v4.00/bin/bin/../../lib/gcc/pic32c/8.3.1/thumb/v7e-m+dp/hard/crtn.o
 .xc_stack_usage.hdr
                0x00000000        0xe c:/program files/microchip/xc32/v4.00/bin/bin/../../lib/gcc/pic32c/8.3.1/thumb/v7e-m+dp/hard/crtn.o

Memory Configuration

Name             Origin             Length             Attributes
rom              0x00400000         0x00200000         xrl
ram              0x20400000         0x00060000         xw !r
itcm             0x00000000         0x00000000         xw
dtcm             0x20000000         0x00000000         xw !r
ram_nocache      0x2045f000         0x00001000         xrw
config_D0000000  0xd0000000         0x00000004
config_D0000004  0xd0000004         0x00000004
config_D0000008  0xd0000008         0x00000004
config_D000000C  0xd000000c         0x00000004
config_D0000010  0xd0000010         0x00000004
*default*        0x00000000         0xffffffff

Linker script and memory map

LOAD c:/program files/microchip/xc32/v4.00/bin/bin/../../lib/gcc/pic32c/8.3.1/thumb/v7e-m+dp/hard/crti.o
LOAD c:/program files/microchip/xc32/v4.00/bin/bin/../../lib/gcc/pic32c/8.3.1/thumb/v7e-m+dp/hard/crtbegin.o
LOAD build/sam_v71_xult/production/_ext/191436215/osal_freertos.o
LOAD build/sam_v71_xult/production/_ext/1157990217/plib_clk.o
LOAD build/sam_v71_xult/production/_ext/1157988489/plib_efc.o
LOAD build/sam_v71_xult/production/_ext/1537669298/plib_mcan1.o
LOAD build/sam_v71_xult/production/_ext/1157980473/plib_mpu.o
LOAD build/sam_v71_xult/production/_ext/1537621011/plib_nvic.o
LOAD build/sam_v71_xult/production/_ext/1157977813/plib_pio.o
LOAD build/sam_v71_xult/production/_ext/415242918/plib_usart1.o
LOAD build/sam_v71_xult/production/_ext/1643282145/xc32_monitor.o
LOAD build/sam_v71_xult/production/_ext/1871840330/sys_cache.o
LOAD build/sam_v71_xult/production/_ext/663512716/sys_int.o
LOAD build/sam_v71_xult/production/_ext/1320227943/initialization.o
LOAD build/sam_v71_xult/production/_ext/1320227943/interrupts.o
LOAD build/sam_v71_xult/production/_ext/1320227943/exceptions.o
LOAD build/sam_v71_xult/production/_ext/1320227943/startup_xc32.o
LOAD build/sam_v71_xult/production/_ext/1320227943/libc_syscalls.o
LOAD build/sam_v71_xult/production/_ext/1320227943/freertos_hooks.o
LOAD build/sam_v71_xult/production/_ext/1320227943/tasks.o
LOAD build/sam_v71_xult/production/_ext/977623654/port.o
LOAD build/sam_v71_xult/production/_ext/1665200909/heap_1.o
LOAD build/sam_v71_xult/production/_ext/404212886/croutine.o
LOAD build/sam_v71_xult/production/_ext/404212886/list.o
LOAD build/sam_v71_xult/production/_ext/404212886/queue.o
LOAD build/sam_v71_xult/production/_ext/404212886/FreeRTOS_tasks.o
LOAD build/sam_v71_xult/production/_ext/404212886/timers.o
LOAD build/sam_v71_xult/production/_ext/404212886/event_groups.o
LOAD build/sam_v71_xult/production/_ext/404212886/stream_buffer.o
LOAD build/sam_v71_xult/production/_ext/1360937237/main_v71.o
LOAD build/sam_v71_xult/production/_ext/1360937237/tarea_principal.o
LOAD build/sam_v71_xult/production/_ext/1563530619/mcan_fd_interrupt.o
LOAD build/sam_v71_xult/production/_ext/1522961716/Uart1_FreeRTOS.o
                0x00000001                __MPLAB_BUILD = 0x1
                0x00600000                __rom_end = (ORIGIN (rom) + LENGTH (rom))
                0x20460000                __ram_end = (ORIGIN (ram) + LENGTH (ram))

.config_D0000000
 *(.config_D0000000)
 *(.config_D0000000)

.config_D0000004
 *(.config_D0000004)
 *(.config_D0000004)

.config_D0000008
 *(.config_D0000008)
 *(.config_D0000008)

.config_D000000C
 *(.config_D000000C)
 *(.config_D000000C)

.config_D0000010
 *(.config_D0000010)
 *(.config_D0000010)

.vectors        0x00400000      0x168
                0x00400000                . = ALIGN (0x4)
                0x00400168                _sfixed = .
 *(.vectors .vectors.* .vectors_default .vectors_default.*)
 .vectors.exception_table
                0x00400000      0x168 build/sam_v71_xult/production/_ext/1320227943/interrupts.o
                0x00400000                exception_table
 *(.isr_vector)
 *(.reset*)
 *(.after_vectors)
                0x00400168                . = ALIGN (0x4)
                0x00400168                _sfixed = .
 *(.vectors .vectors.* .vectors_default .vectors_default.*)
 *(.isr_vector)
 *(.reset*)
 *(.after_vectors)

.text           0x00400168       0x20
                0x00400168                . = ALIGN (0x4)
 *(.glue_7t)
 .glue_7t       0x00400168        0x0 linker stubs
 *(.glue_7)
 .glue_7        0x00400168        0x0 linker stubs
 *(.gnu.linkonce.r.*)
 *(.ARM.extab* .gnu.linkonce.armextab.*)
                0x00400168                . = ALIGN (0x4)
 *(.init)
 .init          0x00400168        0x4 c:/program files/microchip/xc32/v4.00/bin/bin/../../lib/gcc/pic32c/8.3.1/thumb/v7e-m+dp/hard/crti.o
                0x00400168                _init
 .init          0x0040016c        0x8 c:/program files/microchip/xc32/v4.00/bin/bin/../../lib/gcc/pic32c/8.3.1/thumb/v7e-m+dp/hard/crtn.o
                0x00400174                . = ALIGN (0x4)
                0x00400188                __preinit_array_start = .
 *(.preinit_array)
                0x00400188                __preinit_array_end = .
                0x00400174                . = ALIGN (0x4)
                0x00400188                __init_array_start = .
 *(SORT_BY_NAME(.init_array.*))
 *(.init_array)
 .init_array    0x00400174        0x4 c:/program files/microchip/xc32/v4.00/bin/bin/../../lib/gcc/pic32c/8.3.1/thumb/v7e-m+dp/hard/crtbegin.o
                0x00400188                __init_array_end = .
                0x00400178                . = ALIGN (0x4)
 *crtbegin.o(.ctors)
 *(EXCLUDE_FILE(*crtend.o) .ctors)
 *(SORT_BY_NAME(.ctors.*))
 *crtend.o(.ctors)
                0x00400178                . = ALIGN (0x4)
 *(.fini)
 .fini          0x00400178        0x4 c:/program files/microchip/xc32/v4.00/bin/bin/../../lib/gcc/pic32c/8.3.1/thumb/v7e-m+dp/hard/crti.o
                0x00400178                _fini
 .fini          0x0040017c        0x8 c:/program files/microchip/xc32/v4.00/bin/bin/../../lib/gcc/pic32c/8.3.1/thumb/v7e-m+dp/hard/crtn.o
                0x00400184                . = ALIGN (0x4)
                0x00400188                __fini_array_start = .
 *(.fini_array)
 .fini_array    0x00400184        0x4 c:/program files/microchip/xc32/v4.00/bin/bin/../../lib/gcc/pic32c/8.3.1/thumb/v7e-m+dp/hard/crtbegin.o
 *(SORT_BY_NAME(.fini_array.*))
                0x00400188                __fini_array_end = .
 *crtbegin.o(.dtors)
 *(EXCLUDE_FILE(*crtend.o) .dtors)
 *(SORT_BY_NAME(.dtors.*))
 *crtend.o(.dtors)
                0x00400188                . = ALIGN (0x4)
                0x00400188                _efixed = .
                0x00400188                . = ALIGN (0x4)
 *(.glue_7t)
 *(.glue_7)
 *(.gnu.linkonce.r.*)
 *(.ARM.extab* .gnu.linkonce.armextab.*)
                0x00400188                . = ALIGN (0x4)
 *(.init)
                0x00400188                . = ALIGN (0x4)
                0x00400188                __preinit_array_start = .
 *(.preinit_array)
                0x00400188                __preinit_array_end = .
                0x00400188                . = ALIGN (0x4)
                0x00400188                __init_array_start = .
 *(SORT_BY_NAME(.init_array.*))
 *(.init_array)
                0x00400188                __init_array_end = .
                0x00400188                . = ALIGN (0x4)
 *crtbegin.o(.ctors)
 *(EXCLUDE_FILE(*crtend.o) .ctors)
 *(SORT_BY_NAME(.ctors.*))
 *crtend.o(.ctors)
                0x00400188                . = ALIGN (0x4)
 *(.fini)
                0x00400188                . = ALIGN (0x4)
                0x00400188                __fini_array_start = .
 *(.fini_array)
 *(SORT_BY_NAME(.fini_array.*))
                0x00400188                __fini_array_end = .
 *crtbegin.o(.dtors)
 *(EXCLUDE_FILE(*crtend.o) .dtors)
 *(SORT_BY_NAME(.dtors.*))
 *crtend.o(.dtors)
                0x00400188                . = ALIGN (0x4)
                0x00400188                _efixed = .
                [!provide]                PROVIDE (__exidx_start = .)

.ARM.exidx      0x00400188        0x8
 *(.ARM.exidx* .gnu.linkonce.armexidx.*)
 .ARM.exidx     0x00400188        0x8 c:/program files/microchip/xc32/v4.00/bin/bin/../../lib/gcc/pic32c/8.3.1/thumb/v7e-m+dp/hard\libgcc.a(_udivmoddi4.o)
 *(.ARM.exidx* .gnu.linkonce.armexidx.*)
                [!provide]                PROVIDE (__exidx_end = .)
                0x00400190                . = ALIGN (0x4)
                0x20400000                _etext = .

.ram_nocache    0x2045f000        0x0
                0x2045f000                . = ALIGN (0x4)
                0x2045f000                _s_ram_nocache = .
 *(.ram_nocache)
                0x2045f000                . = ALIGN (0x4)
                0x2045f000                _e_ram_nocache = .
                0x2045f000                . = ALIGN (0x4)
                0x2045f000                _s_ram_nocache = .
 *(.ram_nocache)
                0x2045f000                . = ALIGN (0x4)
                0x2045f000                _e_ram_nocache = .

.ram_nocache_data
                0x2045f000        0x0 load address 0x00400190
                0x2045f000                . = ALIGN (0x4)
                0x2045f000                _s_ram_nocache_vma = .
                0x00400190                _s_ram_nocache_lma = LOADADDR (.ram_nocache_data)
 *(.ram_nocache_data)
                0x2045f000                . = ALIGN (0x4)
                0x2045f000                _e_ram_nocache_vma = .
                0x2045f000                . = ALIGN (0x4)
                0x2045f000                _s_ram_nocache_vma = .
                0x00400190                _s_ram_nocache_lma = LOADADDR (.ram_nocache_data)
 *(.ram_nocache_data)
                0x2045f000                . = ALIGN (0x4)
                0x2045f000                _e_ram_nocache_vma = .

.bss            0x20400000        0x0
                0x20400000                . = ALIGN (0x4)
                0x20400000                __bss_start__ = .
                0x20400000                _sbss = .
                0x20400000                _szero = .
 *(COMMON)
                0x20400000                . = ALIGN (0x4)
                0x20400000                __bss_end__ = .
                0x20400000                _ebss = .
                0x20400000                _ezero = .
                0x20400000                . = ALIGN (0x4)
                0x20400000                __bss_start__ = .
                0x20400000                _sbss = .
                0x20400000                _szero = .
 *(COMMON)
                0x20400000                . = ALIGN (0x4)
                0x20400000                __bss_end__ = .
                0x20400000                _ebss = .
                0x20400000                _ezero = .
                0x20400000                . = ALIGN (0x4)
                0x20400000                _end = .
                0x2045ffff                _ram_end_ = ((ORIGIN (ram) + LENGTH (ram)) - 0x1)
                0x00000200                _min_heap_size = 0x200
                0x00600000                __rom_end = (ORIGIN (rom) + LENGTH (rom))
                0x20460000                __ram_end = (ORIGIN (ram) + LENGTH (ram))
                [!provide]                PROVIDE (__exidx_start = .)
                [!provide]                PROVIDE (__exidx_end = .)
                0x20400000                . = ALIGN (0x4)
                0x20400000                _etext = .
                0x20400000                . = ALIGN (0x4)
                0x20400000                _end = .
                0x2045ffff                _ram_end_ = ((ORIGIN (ram) + LENGTH (ram)) - 0x1)
START GROUP
LOAD c:/program files/microchip/xc32/v4.00/bin/bin/../../lib/gcc/pic32c/8.3.1/../../../../pic32c/lib/thumb/v7e-m+dp/hard\libpic32c.a
LOAD c:/program files/microchip/xc32/v4.00/bin/bin/../../lib/gcc/pic32c/8.3.1/../../../../pic32c/lib/thumb/v7e-m+dp/hard\libm-emfloat.a
LOAD c:/program files/microchip/xc32/v4.00/bin/bin/../../lib/gcc/pic32c/8.3.1/../../../../pic32c/lib/thumb/v7e-m+dp/hard\libc-musl.a
LOAD c:/program files/microchip/xc32/v4.00/bin/bin/../../lib/gcc/pic32c/8.3.1/../../../../pic32c/lib/thumb/v7e-m+dp/hard\libm-emfloat.a
LOAD c:/program files/microchip/xc32/v4.00/bin/bin/../../lib/gcc/pic32c/8.3.1/thumb/v7e-m+dp/hard\libgcc.a
END GROUP
LOAD c:/program files/microchip/xc32/v4.00/bin/bin/../../lib/gcc/pic32c/8.3.1/thumb/v7e-m+dp/hard/crtend.o
LOAD c:/program files/microchip/xc32/v4.00/bin/bin/../../lib/gcc/pic32c/8.3.1/thumb/v7e-m+dp/hard/crtn.o
OUTPUT(dist/sam_v71_xult/production/sam_v71_xult.X.production.elf elf32-littlearm)
LOAD stack
LOAD data_init

.ARM.attributes
                0x00000000       0x32
 .ARM.attributes
                0x00000000       0x1e c:/program files/microchip/xc32/v4.00/bin/bin/../../lib/gcc/pic32c/8.3.1/thumb/v7e-m+dp/hard/crti.o
 .ARM.attributes
                0x0000001e       0x32 c:/program files/microchip/xc32/v4.00/bin/bin/../../lib/gcc/pic32c/8.3.1/thumb/v7e-m+dp/hard/crtbegin.o
 .ARM.attributes
                0x00000050       0x32 build/sam_v71_xult/production/_ext/1157990217/plib_clk.o
 .ARM.attributes
                0x00000082       0x32 build/sam_v71_xult/production/_ext/1157988489/plib_efc.o
 .ARM.attributes
                0x000000b4       0x32 build/sam_v71_xult/production/_ext/1537669298/plib_mcan1.o
 .ARM.attributes
                0x000000e6       0x32 build/sam_v71_xult/production/_ext/1157980473/plib_mpu.o
 .ARM.attributes
                0x00000118       0x32 build/sam_v71_xult/production/_ext/1537621011/plib_nvic.o
 .ARM.attributes
                0x0000014a       0x32 build/sam_v71_xult/production/_ext/1157977813/plib_pio.o
 .ARM.attributes
                0x0000017c       0x32 build/sam_v71_xult/production/_ext/415242918/plib_usart1.o
 .ARM.attributes
                0x000001ae       0x32 build/sam_v71_xult/production/_ext/1320227943/initialization.o
 .ARM.attributes
                0x000001e0       0x32 build/sam_v71_xult/production/_ext/1320227943/interrupts.o
 .ARM.attributes
                0x00000212       0x32 build/sam_v71_xult/production/_ext/1320227943/exceptions.o
 .ARM.attributes
                0x00000244       0x32 build/sam_v71_xult/production/_ext/1320227943/startup_xc32.o
 .ARM.attributes
                0x00000276       0x32 build/sam_v71_xult/production/_ext/1320227943/freertos_hooks.o
 .ARM.attributes
                0x000002a8       0x32 build/sam_v71_xult/production/_ext/1320227943/tasks.o
 .ARM.attributes
                0x000002da       0x32 build/sam_v71_xult/production/_ext/977623654/port.o
 .ARM.attributes
                0x0000030c       0x32 build/sam_v71_xult/production/_ext/1665200909/heap_1.o
 .ARM.attributes
                0x0000033e       0x32 build/sam_v71_xult/production/_ext/404212886/list.o
 .ARM.attributes
                0x00000370       0x32 build/sam_v71_xult/production/_ext/404212886/queue.o
 .ARM.attributes
                0x000003a2       0x32 build/sam_v71_xult/production/_ext/404212886/FreeRTOS_tasks.o
 .ARM.attributes
                0x000003d4       0x32 build/sam_v71_xult/production/_ext/1360937237/main_v71.o
 .ARM.attributes
                0x00000406       0x32 build/sam_v71_xult/production/_ext/1360937237/tarea_principal.o
 .ARM.attributes
                0x00000438       0x32 build/sam_v71_xult/production/_ext/1563530619/mcan_fd_interrupt.o
 .ARM.attributes
                0x0000046a       0x32 build/sam_v71_xult/production/_ext/1522961716/Uart1_FreeRTOS.o
 .ARM.attributes
                0x0000049c       0x32 c:/program files/microchip/xc32/v4.00/bin/bin/../../lib/gcc/pic32c/8.3.1/../../../../pic32c/lib/thumb/v7e-m+dp/hard\libpic32c.a(data_init.o)
 .ARM.attributes
                0x000004ce       0x34 c:/program files/microchip/xc32/v4.00/bin/bin/../../lib/gcc/pic32c/8.3.1/../../../../pic32c/lib/thumb/v7e-m+dp/hard\libc-musl.a(__libc_start_main.o)
 .ARM.attributes
                0x00000502       0x32 c:/program files/microchip/xc32/v4.00/bin/bin/../../lib/gcc/pic32c/8.3.1/../../../../pic32c/lib/thumb/v7e-m+dp/hard\libc-musl.a(libc.o)
 .ARM.attributes
                0x00000534       0x34 c:/program files/microchip/xc32/v4.00/bin/bin/../../lib/gcc/pic32c/8.3.1/../../../../pic32c/lib/thumb/v7e-m+dp/hard\libc-musl.a(__sio_sprintf_doux.o)
 .ARM.attributes
                0x00000568       0x34 c:/program files/microchip/xc32/v4.00/bin/bin/../../lib/gcc/pic32c/8.3.1/../../../../pic32c/lib/thumb/v7e-m+dp/hard\libc-musl.a(__fmt_d.o)
 .ARM.attributes
                0x0000059c       0x34 c:/program files/microchip/xc32/v4.00/bin/bin/../../lib/gcc/pic32c/8.3.1/../../../../pic32c/lib/thumb/v7e-m+dp/hard\libc-musl.a(__fmt_o.o)
 .ARM.attributes
                0x000005d0       0x34 c:/program files/microchip/xc32/v4.00/bin/bin/../../lib/gcc/pic32c/8.3.1/../../../../pic32c/lib/thumb/v7e-m+dp/hard\libc-musl.a(__fmt_s.o)
 .ARM.attributes
                0x00000604       0x34 c:/program files/microchip/xc32/v4.00/bin/bin/../../lib/gcc/pic32c/8.3.1/../../../../pic32c/lib/thumb/v7e-m+dp/hard\libc-musl.a(__fmt_u.o)
 .ARM.attributes
                0x00000638       0x34 c:/program files/microchip/xc32/v4.00/bin/bin/../../lib/gcc/pic32c/8.3.1/../../../../pic32c/lib/thumb/v7e-m+dp/hard\libc-musl.a(__fmt_x.o)
 .ARM.attributes
                0x0000066c       0x34 c:/program files/microchip/xc32/v4.00/bin/bin/../../lib/gcc/pic32c/8.3.1/../../../../pic32c/lib/thumb/v7e-m+dp/hard\libc-musl.a(__printf_core.o)
 .ARM.attributes
                0x000006a0       0x34 c:/program files/microchip/xc32/v4.00/bin/bin/../../lib/gcc/pic32c/8.3.1/../../../../pic32c/lib/thumb/v7e-m+dp/hard\libc-musl.a(atoi.o)
 .ARM.attributes
                0x000006d4       0x34 c:/program files/microchip/xc32/v4.00/bin/bin/../../lib/gcc/pic32c/8.3.1/../../../../pic32c/lib/thumb/v7e-m+dp/hard\libc-musl.a(memcpy.o)
 .ARM.attributes
                0x00000708       0x34 c:/program files/microchip/xc32/v4.00/bin/bin/../../lib/gcc/pic32c/8.3.1/../../../../pic32c/lib/thumb/v7e-m+dp/hard\libc-musl.a(memset.o)
 .ARM.attributes
                0x0000073c       0x34 c:/program files/microchip/xc32/v4.00/bin/bin/../../lib/gcc/pic32c/8.3.1/../../../../pic32c/lib/thumb/v7e-m+dp/hard\libc-musl.a(strlen.o)
 .ARM.attributes
                0x00000770       0x34 c:/program files/microchip/xc32/v4.00/bin/bin/../../lib/gcc/pic32c/8.3.1/../../../../pic32c/lib/thumb/v7e-m+dp/hard\libc-musl.a(tolower.o)
 .ARM.attributes
                0x000007a4       0x34 c:/program files/microchip/xc32/v4.00/bin/bin/../../lib/gcc/pic32c/8.3.1/../../../../pic32c/lib/thumb/v7e-m+dp/hard\libc-musl.a(toupper.o)
 .ARM.attributes
                0x000007d8       0x32 c:/program files/microchip/xc32/v4.00/bin/bin/../../lib/gcc/pic32c/8.3.1/../../../../pic32c/lib/thumb/v7e-m+dp/hard\libc-musl.a(__environ.o)
 .ARM.attributes
                0x0000080a       0x32 c:/program files/microchip/xc32/v4.00/bin/bin/../../lib/gcc/pic32c/8.3.1/../../../../pic32c/lib/thumb/v7e-m+dp/hard\libc-musl.a(__errno_location.o)
 .ARM.attributes
                0x0000083c       0x34 c:/program files/microchip/xc32/v4.00/bin/bin/../../lib/gcc/pic32c/8.3.1/../../../../pic32c/lib/thumb/v7e-m+dp/hard\libc-musl.a(__int_vsprintf.o)
 .ARM.attributes
                0x00000870       0x34 c:/program files/microchip/xc32/v4.00/bin/bin/../../lib/gcc/pic32c/8.3.1/../../../../pic32c/lib/thumb/v7e-m+dp/hard\libc-musl.a(__pop_float.o)
 .ARM.attributes
                0x000008a4       0x34 c:/program files/microchip/xc32/v4.00/bin/bin/../../lib/gcc/pic32c/8.3.1/../../../../pic32c/lib/thumb/v7e-m+dp/hard\libc-musl.a(__pop_int.o)
 .ARM.attributes
                0x000008d8       0x34 c:/program files/microchip/xc32/v4.00/bin/bin/../../lib/gcc/pic32c/8.3.1/../../../../pic32c/lib/thumb/v7e-m+dp/hard\libc-musl.a(__pop_ptr.o)
 .ARM.attributes
                0x0000090c       0x34 c:/program files/microchip/xc32/v4.00/bin/bin/../../lib/gcc/pic32c/8.3.1/../../../../pic32c/lib/thumb/v7e-m+dp/hard\libc-musl.a(__int_vsnprintf.o)
 .ARM.attributes
                0x00000940       0x34 c:/program files/microchip/xc32/v4.00/bin/bin/../../lib/gcc/pic32c/8.3.1/../../../../pic32c/lib/thumb/v7e-m+dp/hard\libc-musl.a(__int_vfprintf.o)
 .ARM.attributes
                0x00000974       0x1e c:/program files/microchip/xc32/v4.00/bin/bin/../../lib/gcc/pic32c/8.3.1/thumb/v7e-m+dp/hard\libgcc.a(_aeabi_uldivmod.o)
 .ARM.attributes
                0x00000992       0x32 c:/program files/microchip/xc32/v4.00/bin/bin/../../lib/gcc/pic32c/8.3.1/thumb/v7e-m+dp/hard\libgcc.a(_udivmoddi4.o)
 .ARM.attributes
                0x000009c4       0x1e c:/program files/microchip/xc32/v4.00/bin/bin/../../lib/gcc/pic32c/8.3.1/thumb/v7e-m+dp/hard\libgcc.a(_dvmd_tls.o)
 .ARM.attributes
                0x000009e2       0x1e c:/program files/microchip/xc32/v4.00/bin/bin/../../lib/gcc/pic32c/8.3.1/thumb/v7e-m+dp/hard/crtn.o

.comment        0x00000000       0x53
 .comment       0x00000000       0x53 c:/program files/microchip/xc32/v4.00/bin/bin/../../lib/gcc/pic32c/8.3.1/thumb/v7e-m+dp/hard/crtbegin.o
                                 0x54 (size before relaxing)
 .comment       0x00000053       0x54 build/sam_v71_xult/production/_ext/1157990217/plib_clk.o
 .comment       0x00000053       0x54 build/sam_v71_xult/production/_ext/1157988489/plib_efc.o
 .comment       0x00000053       0x54 build/sam_v71_xult/production/_ext/1537669298/plib_mcan1.o
 .comment       0x00000053       0x54 build/sam_v71_xult/production/_ext/1157980473/plib_mpu.o
 .comment       0x00000053       0x54 build/sam_v71_xult/production/_ext/1537621011/plib_nvic.o
 .comment       0x00000053       0x54 build/sam_v71_xult/production/_ext/1157977813/plib_pio.o
 .comment       0x00000053       0x54 build/sam_v71_xult/production/_ext/415242918/plib_usart1.o
 .comment       0x00000053       0x54 build/sam_v71_xult/production/_ext/1320227943/initialization.o
 .comment       0x00000053       0x54 build/sam_v71_xult/production/_ext/1320227943/interrupts.o
 .comment       0x00000053       0x54 build/sam_v71_xult/production/_ext/1320227943/exceptions.o
 .comment       0x00000053       0x54 build/sam_v71_xult/production/_ext/1320227943/startup_xc32.o
 .comment       0x00000053       0x54 build/sam_v71_xult/production/_ext/1320227943/freertos_hooks.o
 .comment       0x00000053       0x54 build/sam_v71_xult/production/_ext/1320227943/tasks.o
 .comment       0x00000053       0x54 build/sam_v71_xult/production/_ext/977623654/port.o
 .comment       0x00000053       0x54 build/sam_v71_xult/production/_ext/1665200909/heap_1.o
 .comment       0x00000053       0x54 build/sam_v71_xult/production/_ext/404212886/list.o
 .comment       0x00000053       0x54 build/sam_v71_xult/production/_ext/404212886/queue.o
 .comment       0x00000053       0x54 build/sam_v71_xult/production/_ext/404212886/FreeRTOS_tasks.o
 .comment       0x00000053       0x54 build/sam_v71_xult/production/_ext/1360937237/main_v71.o
 .comment       0x00000053       0x54 build/sam_v71_xult/production/_ext/1360937237/tarea_principal.o
 .comment       0x00000053       0x54 build/sam_v71_xult/production/_ext/1563530619/mcan_fd_interrupt.o
 .comment       0x00000053       0x54 build/sam_v71_xult/production/_ext/1522961716/Uart1_FreeRTOS.o
 .comment       0x00000053       0x54 c:/program files/microchip/xc32/v4.00/bin/bin/../../lib/gcc/pic32c/8.3.1/../../../../pic32c/lib/thumb/v7e-m+dp/hard\libpic32c.a(data_init.o)
 .comment       0x00000053       0x54 c:/program files/microchip/xc32/v4.00/bin/bin/../../lib/gcc/pic32c/8.3.1/../../../../pic32c/lib/thumb/v7e-m+dp/hard\libc-musl.a(__libc_start_main.o)
 .comment       0x00000053       0x54 c:/program files/microchip/xc32/v4.00/bin/bin/../../lib/gcc/pic32c/8.3.1/../../../../pic32c/lib/thumb/v7e-m+dp/hard\libc-musl.a(libc.o)
 .comment       0x00000053       0x54 c:/program files/microchip/xc32/v4.00/bin/bin/../../lib/gcc/pic32c/8.3.1/../../../../pic32c/lib/thumb/v7e-m+dp/hard\libc-musl.a(__sio_sprintf_doux.o)
 .comment       0x00000053       0x54 c:/program files/microchip/xc32/v4.00/bin/bin/../../lib/gcc/pic32c/8.3.1/../../../../pic32c/lib/thumb/v7e-m+dp/hard\libc-musl.a(__fmt_d.o)
 .comment       0x00000053       0x54 c:/program files/microchip/xc32/v4.00/bin/bin/../../lib/gcc/pic32c/8.3.1/../../../../pic32c/lib/thumb/v7e-m+dp/hard\libc-musl.a(__fmt_o.o)
 .comment       0x00000053       0x54 c:/program files/microchip/xc32/v4.00/bin/bin/../../lib/gcc/pic32c/8.3.1/../../../../pic32c/lib/thumb/v7e-m+dp/hard\libc-musl.a(__fmt_s.o)
 .comment       0x00000053       0x54 c:/program files/microchip/xc32/v4.00/bin/bin/../../lib/gcc/pic32c/8.3.1/../../../../pic32c/lib/thumb/v7e-m+dp/hard\libc-musl.a(__fmt_u.o)
 .comment       0x00000053       0x54 c:/program files/microchip/xc32/v4.00/bin/bin/../../lib/gcc/pic32c/8.3.1/../../../../pic32c/lib/thumb/v7e-m+dp/hard\libc-musl.a(__fmt_x.o)
 .comment       0x00000053       0x54 c:/program files/microchip/xc32/v4.00/bin/bin/../../lib/gcc/pic32c/8.3.1/../../../../pic32c/lib/thumb/v7e-m+dp/hard\libc-musl.a(__printf_core.o)
 .comment       0x00000053       0x54 c:/program files/microchip/xc32/v4.00/bin/bin/../../lib/gcc/pic32c/8.3.1/../../../../pic32c/lib/thumb/v7e-m+dp/hard\libc-musl.a(atoi.o)
 .comment       0x00000053       0x54 c:/program files/microchip/xc32/v4.00/bin/bin/../../lib/gcc/pic32c/8.3.1/../../../../pic32c/lib/thumb/v7e-m+dp/hard\libc-musl.a(memcpy.o)
 .comment       0x00000053       0x54 c:/program files/microchip/xc32/v4.00/bin/bin/../../lib/gcc/pic32c/8.3.1/../../../../pic32c/lib/thumb/v7e-m+dp/hard\libc-musl.a(memset.o)
 .comment       0x00000053       0x54 c:/program files/microchip/xc32/v4.00/bin/bin/../../lib/gcc/pic32c/8.3.1/../../../../pic32c/lib/thumb/v7e-m+dp/hard\libc-musl.a(strlen.o)
 .comment       0x00000053       0x54 c:/program files/microchip/xc32/v4.00/bin/bin/../../lib/gcc/pic32c/8.3.1/../../../../pic32c/lib/thumb/v7e-m+dp/hard\libc-musl.a(tolower.o)
 .comment       0x00000053       0x54 c:/program files/microchip/xc32/v4.00/bin/bin/../../lib/gcc/pic32c/8.3.1/../../../../pic32c/lib/thumb/v7e-m+dp/hard\libc-musl.a(toupper.o)
 .comment       0x00000053       0x54 c:/program files/microchip/xc32/v4.00/bin/bin/../../lib/gcc/pic32c/8.3.1/../../../../pic32c/lib/thumb/v7e-m+dp/hard\libc-musl.a(__environ.o)
 .comment       0x00000053       0x54 c:/program files/microchip/xc32/v4.00/bin/bin/../../lib/gcc/pic32c/8.3.1/../../../../pic32c/lib/thumb/v7e-m+dp/hard\libc-musl.a(__errno_location.o)
 .comment       0x00000053       0x54 c:/program files/microchip/xc32/v4.00/bin/bin/../../lib/gcc/pic32c/8.3.1/../../../../pic32c/lib/thumb/v7e-m+dp/hard\libc-musl.a(__int_vsprintf.o)
 .comment       0x00000053       0x54 c:/program files/microchip/xc32/v4.00/bin/bin/../../lib/gcc/pic32c/8.3.1/../../../../pic32c/lib/thumb/v7e-m+dp/hard\libc-musl.a(__pop_float.o)
 .comment       0x00000053       0x54 c:/program files/microchip/xc32/v4.00/bin/bin/../../lib/gcc/pic32c/8.3.1/../../../../pic32c/lib/thumb/v7e-m+dp/hard\libc-musl.a(__pop_int.o)
 .comment       0x00000053       0x54 c:/program files/microchip/xc32/v4.00/bin/bin/../../lib/gcc/pic32c/8.3.1/../../../../pic32c/lib/thumb/v7e-m+dp/hard\libc-musl.a(__pop_ptr.o)
 .comment       0x00000053       0x54 c:/program files/microchip/xc32/v4.00/bin/bin/../../lib/gcc/pic32c/8.3.1/../../../../pic32c/lib/thumb/v7e-m+dp/hard\libc-musl.a(__int_vsnprintf.o)
 .comment       0x00000053       0x54 c:/program files/microchip/xc32/v4.00/bin/bin/../../lib/gcc/pic32c/8.3.1/../../../../pic32c/lib/thumb/v7e-m+dp/hard\libc-musl.a(__int_vfprintf.o)
 .comment       0x00000053       0x54 c:/program files/microchip/xc32/v4.00/bin/bin/../../lib/gcc/pic32c/8.3.1/thumb/v7e-m+dp/hard\libgcc.a(_udivmoddi4.o)

.debug_info     0x00000000    0x1f547
 .debug_info    0x00000000      0x8c6 build/sam_v71_xult/production/_ext/1157990217/plib_clk.o
 .debug_info    0x000008c6      0x811 build/sam_v71_xult/production/_ext/1157988489/plib_efc.o
 .debug_info    0x000010d7     0x2306 build/sam_v71_xult/production/_ext/1537669298/plib_mcan1.o
 .debug_info    0x000033dd      0x92e build/sam_v71_xult/production/_ext/1157980473/plib_mpu.o
 .debug_info    0x00003d0b     0x1209 build/sam_v71_xult/production/_ext/1537621011/plib_nvic.o
 .debug_info    0x00004f14      0xf5b build/sam_v71_xult/production/_ext/1157977813/plib_pio.o
 .debug_info    0x00005e6f     0x1852 build/sam_v71_xult/production/_ext/415242918/plib_usart1.o
 .debug_info    0x000076c1      0x4e5 build/sam_v71_xult/production/_ext/1320227943/initialization.o
 .debug_info    0x00007ba6      0xe21 build/sam_v71_xult/production/_ext/1320227943/interrupts.o
 .debug_info    0x000089c7      0x41b build/sam_v71_xult/production/_ext/1320227943/exceptions.o
 .debug_info    0x00008de2      0xe14 build/sam_v71_xult/production/_ext/1320227943/startup_xc32.o
 .debug_info    0x00009bf6      0x53e build/sam_v71_xult/production/_ext/1320227943/freertos_hooks.o
 .debug_info    0x0000a134      0x493 build/sam_v71_xult/production/_ext/1320227943/tasks.o
 .debug_info    0x0000a5c7      0x78e build/sam_v71_xult/production/_ext/977623654/port.o
 .debug_info    0x0000ad55      0x4b9 build/sam_v71_xult/production/_ext/1665200909/heap_1.o
 .debug_info    0x0000b20e      0x641 build/sam_v71_xult/production/_ext/404212886/list.o
 .debug_info    0x0000b84f     0x2153 build/sam_v71_xult/production/_ext/404212886/queue.o
 .debug_info    0x0000d9a2     0x2e00 build/sam_v71_xult/production/_ext/404212886/FreeRTOS_tasks.o
 .debug_info    0x000107a2      0x371 build/sam_v71_xult/production/_ext/1360937237/main_v71.o
 .debug_info    0x00010b13     0x1004 build/sam_v71_xult/production/_ext/1360937237/tarea_principal.o
 .debug_info    0x00011b17      0xcfb build/sam_v71_xult/production/_ext/1563530619/mcan_fd_interrupt.o
 .debug_info    0x00012812      0xae0 build/sam_v71_xult/production/_ext/1522961716/Uart1_FreeRTOS.o
 .debug_info    0x000132f2      0x2e1 c:/program files/microchip/xc32/v4.00/bin/bin/../../lib/gcc/pic32c/8.3.1/../../../../pic32c/lib/thumb/v7e-m+dp/hard\libpic32c.a(data_init.o)
 .debug_info    0x000135d3      0x6b9 c:/program files/microchip/xc32/v4.00/bin/bin/../../lib/gcc/pic32c/8.3.1/../../../../pic32c/lib/thumb/v7e-m+dp/hard\libc-musl.a(__libc_start_main.o)
 .debug_info    0x00013c8c      0x5e5 c:/program files/microchip/xc32/v4.00/bin/bin/../../lib/gcc/pic32c/8.3.1/../../../../pic32c/lib/thumb/v7e-m+dp/hard\libc-musl.a(libc.o)
 .debug_info    0x00014271      0x757 c:/program files/microchip/xc32/v4.00/bin/bin/../../lib/gcc/pic32c/8.3.1/../../../../pic32c/lib/thumb/v7e-m+dp/hard\libc-musl.a(__sio_sprintf_doux.o)
 .debug_info    0x000149c8      0x8c2 c:/program files/microchip/xc32/v4.00/bin/bin/../../lib/gcc/pic32c/8.3.1/../../../../pic32c/lib/thumb/v7e-m+dp/hard\libc-musl.a(__fmt_d.o)
 .debug_info    0x0001528a      0x893 c:/program files/microchip/xc32/v4.00/bin/bin/../../lib/gcc/pic32c/8.3.1/../../../../pic32c/lib/thumb/v7e-m+dp/hard\libc-musl.a(__fmt_o.o)
 .debug_info    0x00015b1d      0x839 c:/program files/microchip/xc32/v4.00/bin/bin/../../lib/gcc/pic32c/8.3.1/../../../../pic32c/lib/thumb/v7e-m+dp/hard\libc-musl.a(__fmt_s.o)
 .debug_info    0x00016356      0x960 c:/program files/microchip/xc32/v4.00/bin/bin/../../lib/gcc/pic32c/8.3.1/../../../../pic32c/lib/thumb/v7e-m+dp/hard\libc-musl.a(__fmt_u.o)
 .debug_info    0x00016cb6      0x8f9 c:/program files/microchip/xc32/v4.00/bin/bin/../../lib/gcc/pic32c/8.3.1/../../../../pic32c/lib/thumb/v7e-m+dp/hard\libc-musl.a(__fmt_x.o)
 .debug_info    0x000175af     0x101d c:/program files/microchip/xc32/v4.00/bin/bin/../../lib/gcc/pic32c/8.3.1/../../../../pic32c/lib/thumb/v7e-m+dp/hard\libc-musl.a(__printf_core.o)
 .debug_info    0x000185cc      0x328 c:/program files/microchip/xc32/v4.00/bin/bin/../../lib/gcc/pic32c/8.3.1/../../../../pic32c/lib/thumb/v7e-m+dp/hard\libc-musl.a(atoi.o)
 .debug_info    0x000188f4      0x324 c:/program files/microchip/xc32/v4.00/bin/bin/../../lib/gcc/pic32c/8.3.1/../../../../pic32c/lib/thumb/v7e-m+dp/hard\libc-musl.a(memcpy.o)
 .debug_info    0x00018c18      0x2e2 c:/program files/microchip/xc32/v4.00/bin/bin/../../lib/gcc/pic32c/8.3.1/../../../../pic32c/lib/thumb/v7e-m+dp/hard\libc-musl.a(memset.o)
 .debug_info    0x00018efa      0x2d3 c:/program files/microchip/xc32/v4.00/bin/bin/../../lib/gcc/pic32c/8.3.1/../../../../pic32c/lib/thumb/v7e-m+dp/hard\libc-musl.a(strlen.o)
 .debug_info    0x000191cd      0x603 c:/program files/microchip/xc32/v4.00/bin/bin/../../lib/gcc/pic32c/8.3.1/../../../../pic32c/lib/thumb/v7e-m+dp/hard\libc-musl.a(tolower.o)
 .debug_info    0x000197d0      0x603 c:/program files/microchip/xc32/v4.00/bin/bin/../../lib/gcc/pic32c/8.3.1/../../../../pic32c/lib/thumb/v7e-m+dp/hard\libc-musl.a(toupper.o)
 .debug_info    0x00019dd3      0x59c c:/program files/microchip/xc32/v4.00/bin/bin/../../lib/gcc/pic32c/8.3.1/../../../../pic32c/lib/thumb/v7e-m+dp/hard\libc-musl.a(__environ.o)
 .debug_info    0x0001a36f      0x580 c:/program files/microchip/xc32/v4.00/bin/bin/../../lib/gcc/pic32c/8.3.1/../../../../pic32c/lib/thumb/v7e-m+dp/hard\libc-musl.a(__errno_location.o)
 .debug_info    0x0001a8ef      0x6a9 c:/program files/microchip/xc32/v4.00/bin/bin/../../lib/gcc/pic32c/8.3.1/../../../../pic32c/lib/thumb/v7e-m+dp/hard\libc-musl.a(__int_vsprintf.o)
 .debug_info    0x0001af98      0x766 c:/program files/microchip/xc32/v4.00/bin/bin/../../lib/gcc/pic32c/8.3.1/../../../../pic32c/lib/thumb/v7e-m+dp/hard\libc-musl.a(__pop_float.o)
 .debug_info    0x0001b6fe      0x78a c:/program files/microchip/xc32/v4.00/bin/bin/../../lib/gcc/pic32c/8.3.1/../../../../pic32c/lib/thumb/v7e-m+dp/hard\libc-musl.a(__pop_int.o)
 .debug_info    0x0001be88      0x781 c:/program files/microchip/xc32/v4.00/bin/bin/../../lib/gcc/pic32c/8.3.1/../../../../pic32c/lib/thumb/v7e-m+dp/hard\libc-musl.a(__pop_ptr.o)
 .debug_info    0x0001c609      0x783 c:/program files/microchip/xc32/v4.00/bin/bin/../../lib/gcc/pic32c/8.3.1/../../../../pic32c/lib/thumb/v7e-m+dp/hard\libc-musl.a(__int_vsnprintf.o)
 .debug_info    0x0001cd8c      0x77f c:/program files/microchip/xc32/v4.00/bin/bin/../../lib/gcc/pic32c/8.3.1/../../../../pic32c/lib/thumb/v7e-m+dp/hard\libc-musl.a(__int_vfprintf.o)
 .debug_info    0x0001d50b       0x26 c:/program files/microchip/xc32/v4.00/bin/bin/../../lib/gcc/pic32c/8.3.1/thumb/v7e-m+dp/hard\libgcc.a(_aeabi_uldivmod.o)
 .debug_info    0x0001d531     0x1ff0 c:/program files/microchip/xc32/v4.00/bin/bin/../../lib/gcc/pic32c/8.3.1/thumb/v7e-m+dp/hard\libgcc.a(_udivmoddi4.o)
 .debug_info    0x0001f521       0x26 c:/program files/microchip/xc32/v4.00/bin/bin/../../lib/gcc/pic32c/8.3.1/thumb/v7e-m+dp/hard\libgcc.a(_dvmd_tls.o)

.debug_abbrev   0x00000000     0x4654
 .debug_abbrev  0x00000000       0xd5 build/sam_v71_xult/production/_ext/1157990217/plib_clk.o
 .debug_abbrev  0x000000d5      0x211 build/sam_v71_xult/production/_ext/1157988489/plib_efc.o
 .debug_abbrev  0x000002e6      0x3cb build/sam_v71_xult/production/_ext/1537669298/plib_mcan1.o
 .debug_abbrev  0x000006b1       0xe4 build/sam_v71_xult/production/_ext/1157980473/plib_mpu.o
 .debug_abbrev  0x00000795      0x208 build/sam_v71_xult/production/_ext/1537621011/plib_nvic.o
 .debug_abbrev  0x0000099d      0x19c build/sam_v71_xult/production/_ext/1157977813/plib_pio.o
 .debug_abbrev  0x00000b39      0x471 build/sam_v71_xult/production/_ext/415242918/plib_usart1.o
 .debug_abbrev  0x00000faa       0xd6 build/sam_v71_xult/production/_ext/1320227943/initialization.o
 .debug_abbrev  0x00001080       0xcf build/sam_v71_xult/production/_ext/1320227943/interrupts.o
 .debug_abbrev  0x0000114f       0x67 build/sam_v71_xult/production/_ext/1320227943/exceptions.o
 .debug_abbrev  0x000011b6      0x24f build/sam_v71_xult/production/_ext/1320227943/startup_xc32.o
 .debug_abbrev  0x00001405      0x14e build/sam_v71_xult/production/_ext/1320227943/freertos_hooks.o
 .debug_abbrev  0x00001553      0x102 build/sam_v71_xult/production/_ext/1320227943/tasks.o
 .debug_abbrev  0x00001655      0x23e build/sam_v71_xult/production/_ext/977623654/port.o
 .debug_abbrev  0x00001893      0x13a build/sam_v71_xult/production/_ext/1665200909/heap_1.o
 .debug_abbrev  0x000019cd      0x15e build/sam_v71_xult/production/_ext/404212886/list.o
 .debug_abbrev  0x00001b2b      0x399 build/sam_v71_xult/production/_ext/404212886/queue.o
 .debug_abbrev  0x00001ec4      0x441 build/sam_v71_xult/production/_ext/404212886/FreeRTOS_tasks.o
 .debug_abbrev  0x00002305       0xa0 build/sam_v71_xult/production/_ext/1360937237/main_v71.o
 .debug_abbrev  0x000023a5      0x1fe build/sam_v71_xult/production/_ext/1360937237/tarea_principal.o
 .debug_abbrev  0x000025a3      0x1cf build/sam_v71_xult/production/_ext/1563530619/mcan_fd_interrupt.o
 .debug_abbrev  0x00002772      0x1f8 build/sam_v71_xult/production/_ext/1522961716/Uart1_FreeRTOS.o
 .debug_abbrev  0x0000296a       0x2e c:/program files/microchip/xc32/v4.00/bin/bin/../../lib/gcc/pic32c/8.3.1/../../../../pic32c/lib/thumb/v7e-m+dp/hard\libpic32c.a(data_init.o)
 .debug_abbrev  0x00002998      0x126 c:/program files/microchip/xc32/v4.00/bin/bin/../../lib/gcc/pic32c/8.3.1/../../../../pic32c/lib/thumb/v7e-m+dp/hard\libc-musl.a(__libc_start_main.o)
 .debug_abbrev  0x00002abe       0xc7 c:/program files/microchip/xc32/v4.00/bin/bin/../../lib/gcc/pic32c/8.3.1/../../../../pic32c/lib/thumb/v7e-m+dp/hard\libc-musl.a(libc.o)
 .debug_abbrev  0x00002b85      0x194 c:/program files/microchip/xc32/v4.00/bin/bin/../../lib/gcc/pic32c/8.3.1/../../../../pic32c/lib/thumb/v7e-m+dp/hard\libc-musl.a(__sio_sprintf_doux.o)
 .debug_abbrev  0x00002d19      0x16f c:/program files/microchip/xc32/v4.00/bin/bin/../../lib/gcc/pic32c/8.3.1/../../../../pic32c/lib/thumb/v7e-m+dp/hard\libc-musl.a(__fmt_d.o)
 .debug_abbrev  0x00002e88      0x16f c:/program files/microchip/xc32/v4.00/bin/bin/../../lib/gcc/pic32c/8.3.1/../../../../pic32c/lib/thumb/v7e-m+dp/hard\libc-musl.a(__fmt_o.o)
 .debug_abbrev  0x00002ff7      0x14f c:/program files/microchip/xc32/v4.00/bin/bin/../../lib/gcc/pic32c/8.3.1/../../../../pic32c/lib/thumb/v7e-m+dp/hard\libc-musl.a(__fmt_s.o)
 .debug_abbrev  0x00003146      0x1b2 c:/program files/microchip/xc32/v4.00/bin/bin/../../lib/gcc/pic32c/8.3.1/../../../../pic32c/lib/thumb/v7e-m+dp/hard\libc-musl.a(__fmt_u.o)
 .debug_abbrev  0x000032f8      0x15e c:/program files/microchip/xc32/v4.00/bin/bin/../../lib/gcc/pic32c/8.3.1/../../../../pic32c/lib/thumb/v7e-m+dp/hard\libc-musl.a(__fmt_x.o)
 .debug_abbrev  0x00003456      0x2e8 c:/program files/microchip/xc32/v4.00/bin/bin/../../lib/gcc/pic32c/8.3.1/../../../../pic32c/lib/thumb/v7e-m+dp/hard\libc-musl.a(__printf_core.o)
 .debug_abbrev  0x0000373e       0xbb c:/program files/microchip/xc32/v4.00/bin/bin/../../lib/gcc/pic32c/8.3.1/../../../../pic32c/lib/thumb/v7e-m+dp/hard\libc-musl.a(atoi.o)
 .debug_abbrev  0x000037f9       0x9c c:/program files/microchip/xc32/v4.00/bin/bin/../../lib/gcc/pic32c/8.3.1/../../../../pic32c/lib/thumb/v7e-m+dp/hard\libc-musl.a(memcpy.o)
 .debug_abbrev  0x00003895       0x97 c:/program files/microchip/xc32/v4.00/bin/bin/../../lib/gcc/pic32c/8.3.1/../../../../pic32c/lib/thumb/v7e-m+dp/hard\libc-musl.a(memset.o)
 .debug_abbrev  0x0000392c       0x86 c:/program files/microchip/xc32/v4.00/bin/bin/../../lib/gcc/pic32c/8.3.1/../../../../pic32c/lib/thumb/v7e-m+dp/hard\libc-musl.a(strlen.o)
 .debug_abbrev  0x000039b2      0x126 c:/program files/microchip/xc32/v4.00/bin/bin/../../lib/gcc/pic32c/8.3.1/../../../../pic32c/lib/thumb/v7e-m+dp/hard\libc-musl.a(tolower.o)
 .debug_abbrev  0x00003ad8      0x126 c:/program files/microchip/xc32/v4.00/bin/bin/../../lib/gcc/pic32c/8.3.1/../../../../pic32c/lib/thumb/v7e-m+dp/hard\libc-musl.a(toupper.o)
 .debug_abbrev  0x00003bfe       0xc7 c:/program files/microchip/xc32/v4.00/bin/bin/../../lib/gcc/pic32c/8.3.1/../../../../pic32c/lib/thumb/v7e-m+dp/hard\libc-musl.a(__environ.o)
 .debug_abbrev  0x00003cc5       0xba c:/program files/microchip/xc32/v4.00/bin/bin/../../lib/gcc/pic32c/8.3.1/../../../../pic32c/lib/thumb/v7e-m+dp/hard\libc-musl.a(__errno_location.o)
 .debug_abbrev  0x00003d7f      0x129 c:/program files/microchip/xc32/v4.00/bin/bin/../../lib/gcc/pic32c/8.3.1/../../../../pic32c/lib/thumb/v7e-m+dp/hard\libc-musl.a(__int_vsprintf.o)
 .debug_abbrev  0x00003ea8      0x11b c:/program files/microchip/xc32/v4.00/bin/bin/../../lib/gcc/pic32c/8.3.1/../../../../pic32c/lib/thumb/v7e-m+dp/hard\libc-musl.a(__pop_float.o)
 .debug_abbrev  0x00003fc3      0x11b c:/program files/microchip/xc32/v4.00/bin/bin/../../lib/gcc/pic32c/8.3.1/../../../../pic32c/lib/thumb/v7e-m+dp/hard\libc-musl.a(__pop_int.o)
 .debug_abbrev  0x000040de      0x12c c:/program files/microchip/xc32/v4.00/bin/bin/../../lib/gcc/pic32c/8.3.1/../../../../pic32c/lib/thumb/v7e-m+dp/hard\libc-musl.a(__pop_ptr.o)
 .debug_abbrev  0x0000420a      0x137 c:/program files/microchip/xc32/v4.00/bin/bin/../../lib/gcc/pic32c/8.3.1/../../../../pic32c/lib/thumb/v7e-m+dp/hard\libc-musl.a(__int_vsnprintf.o)
 .debug_abbrev  0x00004341      0x159 c:/program files/microchip/xc32/v4.00/bin/bin/../../lib/gcc/pic32c/8.3.1/../../../../pic32c/lib/thumb/v7e-m+dp/hard\libc-musl.a(__int_vfprintf.o)
 .debug_abbrev  0x0000449a       0x14 c:/program files/microchip/xc32/v4.00/bin/bin/../../lib/gcc/pic32c/8.3.1/thumb/v7e-m+dp/hard\libgcc.a(_aeabi_uldivmod.o)
 .debug_abbrev  0x000044ae      0x192 c:/program files/microchip/xc32/v4.00/bin/bin/../../lib/gcc/pic32c/8.3.1/thumb/v7e-m+dp/hard\libgcc.a(_udivmoddi4.o)
 .debug_abbrev  0x00004640       0x14 c:/program files/microchip/xc32/v4.00/bin/bin/../../lib/gcc/pic32c/8.3.1/thumb/v7e-m+dp/hard\libgcc.a(_dvmd_tls.o)

.debug_aranges  0x00000000      0xb80
 .debug_aranges
                0x00000000       0x20 build/sam_v71_xult/production/_ext/1157990217/plib_clk.o
 .debug_aranges
                0x00000020       0x60 build/sam_v71_xult/production/_ext/1157988489/plib_efc.o
 .debug_aranges
                0x00000080       0xb8 build/sam_v71_xult/production/_ext/1537669298/plib_mcan1.o
 .debug_aranges
                0x00000138       0x20 build/sam_v71_xult/production/_ext/1157980473/plib_mpu.o
 .debug_aranges
                0x00000158       0x38 build/sam_v71_xult/production/_ext/1537621011/plib_nvic.o
 .debug_aranges
                0x00000190       0x60 build/sam_v71_xult/production/_ext/1157977813/plib_pio.o
 .debug_aranges
                0x000001f0       0xb0 build/sam_v71_xult/production/_ext/415242918/plib_usart1.o
 .debug_aranges
                0x000002a0       0x20 build/sam_v71_xult/production/_ext/1320227943/initialization.o
 .debug_aranges
                0x000002c0       0x20 build/sam_v71_xult/production/_ext/1320227943/interrupts.o
 .debug_aranges
                0x000002e0       0x48 build/sam_v71_xult/production/_ext/1320227943/exceptions.o
 .debug_aranges
                0x00000328       0x28 build/sam_v71_xult/production/_ext/1320227943/startup_xc32.o
 .debug_aranges
                0x00000350       0x40 build/sam_v71_xult/production/_ext/1320227943/freertos_hooks.o
 .debug_aranges
                0x00000390       0x28 build/sam_v71_xult/production/_ext/1320227943/tasks.o
 .debug_aranges
                0x000003b8       0x78 build/sam_v71_xult/production/_ext/977623654/port.o
 .debug_aranges
                0x00000430       0x38 build/sam_v71_xult/production/_ext/1665200909/heap_1.o
 .debug_aranges
                0x00000468       0x40 build/sam_v71_xult/production/_ext/404212886/list.o
 .debug_aranges
                0x000004a8       0xc8 build/sam_v71_xult/production/_ext/404212886/queue.o
 .debug_aranges
                0x00000570      0x178 build/sam_v71_xult/production/_ext/404212886/FreeRTOS_tasks.o
 .debug_aranges
                0x000006e8       0x20 build/sam_v71_xult/production/_ext/1360937237/main_v71.o
 .debug_aranges
                0x00000708       0x40 build/sam_v71_xult/production/_ext/1360937237/tarea_principal.o
 .debug_aranges
                0x00000748       0x48 build/sam_v71_xult/production/_ext/1563530619/mcan_fd_interrupt.o
 .debug_aranges
                0x00000790       0x50 build/sam_v71_xult/production/_ext/1522961716/Uart1_FreeRTOS.o
 .debug_aranges
                0x000007e0       0x20 c:/program files/microchip/xc32/v4.00/bin/bin/../../lib/gcc/pic32c/8.3.1/../../../../pic32c/lib/thumb/v7e-m+dp/hard\libpic32c.a(data_init.o)
 .debug_aranges
                0x00000800       0x28 c:/program files/microchip/xc32/v4.00/bin/bin/../../lib/gcc/pic32c/8.3.1/../../../../pic32c/lib/thumb/v7e-m+dp/hard\libc-musl.a(__libc_start_main.o)
 .debug_aranges
                0x00000828       0x18 c:/program files/microchip/xc32/v4.00/bin/bin/../../lib/gcc/pic32c/8.3.1/../../../../pic32c/lib/thumb/v7e-m+dp/hard\libc-musl.a(libc.o)
 .debug_aranges
                0x00000840       0x28 c:/program files/microchip/xc32/v4.00/bin/bin/../../lib/gcc/pic32c/8.3.1/../../../../pic32c/lib/thumb/v7e-m+dp/hard\libc-musl.a(__sio_sprintf_doux.o)
 .debug_aranges
                0x00000868       0x20 c:/program files/microchip/xc32/v4.00/bin/bin/../../lib/gcc/pic32c/8.3.1/../../../../pic32c/lib/thumb/v7e-m+dp/hard\libc-musl.a(__fmt_d.o)
 .debug_aranges
                0x00000888       0x20 c:/program files/microchip/xc32/v4.00/bin/bin/../../lib/gcc/pic32c/8.3.1/../../../../pic32c/lib/thumb/v7e-m+dp/hard\libc-musl.a(__fmt_o.o)
 .debug_aranges
                0x000008a8       0x20 c:/program files/microchip/xc32/v4.00/bin/bin/../../lib/gcc/pic32c/8.3.1/../../../../pic32c/lib/thumb/v7e-m+dp/hard\libc-musl.a(__fmt_s.o)
 .debug_aranges
                0x000008c8       0x28 c:/program files/microchip/xc32/v4.00/bin/bin/../../lib/gcc/pic32c/8.3.1/../../../../pic32c/lib/thumb/v7e-m+dp/hard\libc-musl.a(__fmt_u.o)
 .debug_aranges
                0x000008f0       0x20 c:/program files/microchip/xc32/v4.00/bin/bin/../../lib/gcc/pic32c/8.3.1/../../../../pic32c/lib/thumb/v7e-m+dp/hard\libc-musl.a(__fmt_x.o)
 .debug_aranges
                0x00000910       0x50 c:/program files/microchip/xc32/v4.00/bin/bin/../../lib/gcc/pic32c/8.3.1/../../../../pic32c/lib/thumb/v7e-m+dp/hard\libc-musl.a(__printf_core.o)
 .debug_aranges
                0x00000960       0x20 c:/program files/microchip/xc32/v4.00/bin/bin/../../lib/gcc/pic32c/8.3.1/../../../../pic32c/lib/thumb/v7e-m+dp/hard\libc-musl.a(atoi.o)
 .debug_aranges
                0x00000980       0x20 c:/program files/microchip/xc32/v4.00/bin/bin/../../lib/gcc/pic32c/8.3.1/../../../../pic32c/lib/thumb/v7e-m+dp/hard\libc-musl.a(memcpy.o)
 .debug_aranges
                0x000009a0       0x20 c:/program files/microchip/xc32/v4.00/bin/bin/../../lib/gcc/pic32c/8.3.1/../../../../pic32c/lib/thumb/v7e-m+dp/hard\libc-musl.a(memset.o)
 .debug_aranges
                0x000009c0       0x20 c:/program files/microchip/xc32/v4.00/bin/bin/../../lib/gcc/pic32c/8.3.1/../../../../pic32c/lib/thumb/v7e-m+dp/hard\libc-musl.a(strlen.o)
 .debug_aranges
                0x000009e0       0x28 c:/program files/microchip/xc32/v4.00/bin/bin/../../lib/gcc/pic32c/8.3.1/../../../../pic32c/lib/thumb/v7e-m+dp/hard\libc-musl.a(tolower.o)
 .debug_aranges
                0x00000a08       0x28 c:/program files/microchip/xc32/v4.00/bin/bin/../../lib/gcc/pic32c/8.3.1/../../../../pic32c/lib/thumb/v7e-m+dp/hard\libc-musl.a(toupper.o)
 .debug_aranges
                0x00000a30       0x18 c:/program files/microchip/xc32/v4.00/bin/bin/../../lib/gcc/pic32c/8.3.1/../../../../pic32c/lib/thumb/v7e-m+dp/hard\libc-musl.a(__environ.o)
 .debug_aranges
                0x00000a48       0x18 c:/program files/microchip/xc32/v4.00/bin/bin/../../lib/gcc/pic32c/8.3.1/../../../../pic32c/lib/thumb/v7e-m+dp/hard\libc-musl.a(__errno_location.o)
 .debug_aranges
                0x00000a60       0x20 c:/program files/microchip/xc32/v4.00/bin/bin/../../lib/gcc/pic32c/8.3.1/../../../../pic32c/lib/thumb/v7e-m+dp/hard\libc-musl.a(__int_vsprintf.o)
 .debug_aranges
                0x00000a80       0x20 c:/program files/microchip/xc32/v4.00/bin/bin/../../lib/gcc/pic32c/8.3.1/../../../../pic32c/lib/thumb/v7e-m+dp/hard\libc-musl.a(__pop_float.o)
 .debug_aranges
                0x00000aa0       0x20 c:/program files/microchip/xc32/v4.00/bin/bin/../../lib/gcc/pic32c/8.3.1/../../../../pic32c/lib/thumb/v7e-m+dp/hard\libc-musl.a(__pop_int.o)
 .debug_aranges
                0x00000ac0       0x20 c:/program files/microchip/xc32/v4.00/bin/bin/../../lib/gcc/pic32c/8.3.1/../../../../pic32c/lib/thumb/v7e-m+dp/hard\libc-musl.a(__pop_ptr.o)
 .debug_aranges
                0x00000ae0       0x20 c:/program files/microchip/xc32/v4.00/bin/bin/../../lib/gcc/pic32c/8.3.1/../../../../pic32c/lib/thumb/v7e-m+dp/hard\libc-musl.a(__int_vsnprintf.o)
 .debug_aranges
                0x00000b00       0x20 c:/program files/microchip/xc32/v4.00/bin/bin/../../lib/gcc/pic32c/8.3.1/../../../../pic32c/lib/thumb/v7e-m+dp/hard\libc-musl.a(__int_vfprintf.o)
 .debug_aranges
                0x00000b20       0x20 c:/program files/microchip/xc32/v4.00/bin/bin/../../lib/gcc/pic32c/8.3.1/thumb/v7e-m+dp/hard\libgcc.a(_aeabi_uldivmod.o)
 .debug_aranges
                0x00000b40       0x20 c:/program files/microchip/xc32/v4.00/bin/bin/../../lib/gcc/pic32c/8.3.1/thumb/v7e-m+dp/hard\libgcc.a(_udivmoddi4.o)
 .debug_aranges
                0x00000b60       0x20 c:/program files/microchip/xc32/v4.00/bin/bin/../../lib/gcc/pic32c/8.3.1/thumb/v7e-m+dp/hard\libgcc.a(_dvmd_tls.o)

.debug_ranges   0x00000000      0xc68
 .debug_ranges  0x00000000       0x10 build/sam_v71_xult/production/_ext/1157990217/plib_clk.o
 .debug_ranges  0x00000010       0x68 build/sam_v71_xult/production/_ext/1157988489/plib_efc.o
 .debug_ranges  0x00000078       0xc8 build/sam_v71_xult/production/_ext/1537669298/plib_mcan1.o
 .debug_ranges  0x00000140       0x10 build/sam_v71_xult/production/_ext/1157980473/plib_mpu.o
 .debug_ranges  0x00000150       0x28 build/sam_v71_xult/production/_ext/1537621011/plib_nvic.o
 .debug_ranges  0x00000178       0x50 build/sam_v71_xult/production/_ext/1157977813/plib_pio.o
 .debug_ranges  0x000001c8      0x148 build/sam_v71_xult/production/_ext/415242918/plib_usart1.o
 .debug_ranges  0x00000310       0x10 build/sam_v71_xult/production/_ext/1320227943/initialization.o
 .debug_ranges  0x00000320       0x10 build/sam_v71_xult/production/_ext/1320227943/interrupts.o
 .debug_ranges  0x00000330       0x38 build/sam_v71_xult/production/_ext/1320227943/exceptions.o
 .debug_ranges  0x00000368       0x48 build/sam_v71_xult/production/_ext/1320227943/startup_xc32.o
 .debug_ranges  0x000003b0       0x30 build/sam_v71_xult/production/_ext/1320227943/freertos_hooks.o
 .debug_ranges  0x000003e0       0x18 build/sam_v71_xult/production/_ext/1320227943/tasks.o
 .debug_ranges  0x000003f8       0x68 build/sam_v71_xult/production/_ext/977623654/port.o
 .debug_ranges  0x00000460       0x28 build/sam_v71_xult/production/_ext/1665200909/heap_1.o
 .debug_ranges  0x00000488       0x30 build/sam_v71_xult/production/_ext/404212886/list.o
 .debug_ranges  0x000004b8      0x180 build/sam_v71_xult/production/_ext/404212886/queue.o
 .debug_ranges  0x00000638      0x270 build/sam_v71_xult/production/_ext/404212886/FreeRTOS_tasks.o
 .debug_ranges  0x000008a8       0x10 build/sam_v71_xult/production/_ext/1360937237/main_v71.o
 .debug_ranges  0x000008b8       0x68 build/sam_v71_xult/production/_ext/1360937237/tarea_principal.o
 .debug_ranges  0x00000920       0x38 build/sam_v71_xult/production/_ext/1563530619/mcan_fd_interrupt.o
 .debug_ranges  0x00000958       0x40 build/sam_v71_xult/production/_ext/1522961716/Uart1_FreeRTOS.o
 .debug_ranges  0x00000998       0x10 c:/program files/microchip/xc32/v4.00/bin/bin/../../lib/gcc/pic32c/8.3.1/../../../../pic32c/lib/thumb/v7e-m+dp/hard\libpic32c.a(data_init.o)
 .debug_ranges  0x000009a8       0x40 c:/program files/microchip/xc32/v4.00/bin/bin/../../lib/gcc/pic32c/8.3.1/../../../../pic32c/lib/thumb/v7e-m+dp/hard\libc-musl.a(__libc_start_main.o)
 .debug_ranges  0x000009e8       0x18 c:/program files/microchip/xc32/v4.00/bin/bin/../../lib/gcc/pic32c/8.3.1/../../../../pic32c/lib/thumb/v7e-m+dp/hard\libc-musl.a(__sio_sprintf_doux.o)
 .debug_ranges  0x00000a00       0x10 c:/program files/microchip/xc32/v4.00/bin/bin/../../lib/gcc/pic32c/8.3.1/../../../../pic32c/lib/thumb/v7e-m+dp/hard\libc-musl.a(__fmt_d.o)
 .debug_ranges  0x00000a10       0x10 c:/program files/microchip/xc32/v4.00/bin/bin/../../lib/gcc/pic32c/8.3.1/../../../../pic32c/lib/thumb/v7e-m+dp/hard\libc-musl.a(__fmt_o.o)
 .debug_ranges  0x00000a20       0x10 c:/program files/microchip/xc32/v4.00/bin/bin/../../lib/gcc/pic32c/8.3.1/../../../../pic32c/lib/thumb/v7e-m+dp/hard\libc-musl.a(__fmt_s.o)
 .debug_ranges  0x00000a30       0x18 c:/program files/microchip/xc32/v4.00/bin/bin/../../lib/gcc/pic32c/8.3.1/../../../../pic32c/lib/thumb/v7e-m+dp/hard\libc-musl.a(__fmt_u.o)
 .debug_ranges  0x00000a48       0x10 c:/program files/microchip/xc32/v4.00/bin/bin/../../lib/gcc/pic32c/8.3.1/../../../../pic32c/lib/thumb/v7e-m+dp/hard\libc-musl.a(__fmt_x.o)
 .debug_ranges  0x00000a58       0x68 c:/program files/microchip/xc32/v4.00/bin/bin/../../lib/gcc/pic32c/8.3.1/../../../../pic32c/lib/thumb/v7e-m+dp/hard\libc-musl.a(__printf_core.o)
 .debug_ranges  0x00000ac0       0x10 c:/program files/microchip/xc32/v4.00/bin/bin/../../lib/gcc/pic32c/8.3.1/../../../../pic32c/lib/thumb/v7e-m+dp/hard\libc-musl.a(atoi.o)
 .debug_ranges  0x00000ad0       0x10 c:/program files/microchip/xc32/v4.00/bin/bin/../../lib/gcc/pic32c/8.3.1/../../../../pic32c/lib/thumb/v7e-m+dp/hard\libc-musl.a(memcpy.o)
 .debug_ranges  0x00000ae0       0x10 c:/program files/microchip/xc32/v4.00/bin/bin/../../lib/gcc/pic32c/8.3.1/../../../../pic32c/lib/thumb/v7e-m+dp/hard\libc-musl.a(memset.o)
 .debug_ranges  0x00000af0       0x10 c:/program files/microchip/xc32/v4.00/bin/bin/../../lib/gcc/pic32c/8.3.1/../../../../pic32c/lib/thumb/v7e-m+dp/hard\libc-musl.a(strlen.o)
 .debug_ranges  0x00000b00       0x18 c:/program files/microchip/xc32/v4.00/bin/bin/../../lib/gcc/pic32c/8.3.1/../../../../pic32c/lib/thumb/v7e-m+dp/hard\libc-musl.a(tolower.o)
 .debug_ranges  0x00000b18       0x18 c:/program files/microchip/xc32/v4.00/bin/bin/../../lib/gcc/pic32c/8.3.1/../../../../pic32c/lib/thumb/v7e-m+dp/hard\libc-musl.a(toupper.o)
 .debug_ranges  0x00000b30       0x10 c:/program files/microchip/xc32/v4.00/bin/bin/../../lib/gcc/pic32c/8.3.1/../../../../pic32c/lib/thumb/v7e-m+dp/hard\libc-musl.a(__int_vsprintf.o)
 .debug_ranges  0x00000b40       0x10 c:/program files/microchip/xc32/v4.00/bin/bin/../../lib/gcc/pic32c/8.3.1/../../../../pic32c/lib/thumb/v7e-m+dp/hard\libc-musl.a(__pop_float.o)
 .debug_ranges  0x00000b50       0x10 c:/program files/microchip/xc32/v4.00/bin/bin/../../lib/gcc/pic32c/8.3.1/../../../../pic32c/lib/thumb/v7e-m+dp/hard\libc-musl.a(__pop_int.o)
 .debug_ranges  0x00000b60       0x10 c:/program files/microchip/xc32/v4.00/bin/bin/../../lib/gcc/pic32c/8.3.1/../../../../pic32c/lib/thumb/v7e-m+dp/hard\libc-musl.a(__pop_ptr.o)
 .debug_ranges  0x00000b70       0x10 c:/program files/microchip/xc32/v4.00/bin/bin/../../lib/gcc/pic32c/8.3.1/../../../../pic32c/lib/thumb/v7e-m+dp/hard\libc-musl.a(__int_vsnprintf.o)
 .debug_ranges  0x00000b80       0x10 c:/program files/microchip/xc32/v4.00/bin/bin/../../lib/gcc/pic32c/8.3.1/../../../../pic32c/lib/thumb/v7e-m+dp/hard\libc-musl.a(__int_vfprintf.o)
 .debug_ranges  0x00000b90       0xd8 c:/program files/microchip/xc32/v4.00/bin/bin/../../lib/gcc/pic32c/8.3.1/thumb/v7e-m+dp/hard\libgcc.a(_udivmoddi4.o)

.debug_line     0x00000000     0xa488
 .debug_line    0x00000000      0x200 build/sam_v71_xult/production/_ext/1157990217/plib_clk.o
 .debug_line    0x00000200      0x320 build/sam_v71_xult/production/_ext/1157988489/plib_efc.o
 .debug_line    0x00000520      0xcb0 build/sam_v71_xult/production/_ext/1537669298/plib_mcan1.o
 .debug_line    0x000011d0      0x14a build/sam_v71_xult/production/_ext/1157980473/plib_mpu.o
 .debug_line    0x0000131a      0x317 build/sam_v71_xult/production/_ext/1537621011/plib_nvic.o
 .debug_line    0x00001631      0x3cc build/sam_v71_xult/production/_ext/1157977813/plib_pio.o
 .debug_line    0x000019fd      0x98d build/sam_v71_xult/production/_ext/415242918/plib_usart1.o
 .debug_line    0x0000238a      0x2b3 build/sam_v71_xult/production/_ext/1320227943/initialization.o
 .debug_line    0x0000263d       0xf3 build/sam_v71_xult/production/_ext/1320227943/interrupts.o
 .debug_line    0x00002730      0x14c build/sam_v71_xult/production/_ext/1320227943/exceptions.o
 .debug_line    0x0000287c      0x4a7 build/sam_v71_xult/production/_ext/1320227943/startup_xc32.o
 .debug_line    0x00002d23      0x1e3 build/sam_v71_xult/production/_ext/1320227943/freertos_hooks.o
 .debug_line    0x00002f06      0x161 build/sam_v71_xult/production/_ext/1320227943/tasks.o
 .debug_line    0x00003067      0x35f build/sam_v71_xult/production/_ext/977623654/port.o
 .debug_line    0x000033c6      0x1b3 build/sam_v71_xult/production/_ext/1665200909/heap_1.o
 .debug_line    0x00003579      0x2d4 build/sam_v71_xult/production/_ext/404212886/list.o
 .debug_line    0x0000384d      0xe88 build/sam_v71_xult/production/_ext/404212886/queue.o
 .debug_line    0x000046d5     0x16f1 build/sam_v71_xult/production/_ext/404212886/FreeRTOS_tasks.o
 .debug_line    0x00005dc6       0xf7 build/sam_v71_xult/production/_ext/1360937237/main_v71.o
 .debug_line    0x00005ebd      0x49c build/sam_v71_xult/production/_ext/1360937237/tarea_principal.o
 .debug_line    0x00006359      0x2ba build/sam_v71_xult/production/_ext/1563530619/mcan_fd_interrupt.o
 .debug_line    0x00006613      0x360 build/sam_v71_xult/production/_ext/1522961716/Uart1_FreeRTOS.o
 .debug_line    0x00006973      0x110 c:/program files/microchip/xc32/v4.00/bin/bin/../../lib/gcc/pic32c/8.3.1/../../../../pic32c/lib/thumb/v7e-m+dp/hard\libpic32c.a(data_init.o)
 .debug_line    0x00006a83      0x24c c:/program files/microchip/xc32/v4.00/bin/bin/../../lib/gcc/pic32c/8.3.1/../../../../pic32c/lib/thumb/v7e-m+dp/hard\libc-musl.a(__libc_start_main.o)
 .debug_line    0x00006ccf      0x132 c:/program files/microchip/xc32/v4.00/bin/bin/../../lib/gcc/pic32c/8.3.1/../../../../pic32c/lib/thumb/v7e-m+dp/hard\libc-musl.a(libc.o)
 .debug_line    0x00006e01      0x231 c:/program files/microchip/xc32/v4.00/bin/bin/../../lib/gcc/pic32c/8.3.1/../../../../pic32c/lib/thumb/v7e-m+dp/hard\libc-musl.a(__sio_sprintf_doux.o)
 .debug_line    0x00007032      0x2af c:/program files/microchip/xc32/v4.00/bin/bin/../../lib/gcc/pic32c/8.3.1/../../../../pic32c/lib/thumb/v7e-m+dp/hard\libc-musl.a(__fmt_d.o)
 .debug_line    0x000072e1      0x259 c:/program files/microchip/xc32/v4.00/bin/bin/../../lib/gcc/pic32c/8.3.1/../../../../pic32c/lib/thumb/v7e-m+dp/hard\libc-musl.a(__fmt_o.o)
 .debug_line    0x0000753a      0x29a c:/program files/microchip/xc32/v4.00/bin/bin/../../lib/gcc/pic32c/8.3.1/../../../../pic32c/lib/thumb/v7e-m+dp/hard\libc-musl.a(__fmt_s.o)
 .debug_line    0x000077d4      0x2e3 c:/program files/microchip/xc32/v4.00/bin/bin/../../lib/gcc/pic32c/8.3.1/../../../../pic32c/lib/thumb/v7e-m+dp/hard\libc-musl.a(__fmt_u.o)
 .debug_line    0x00007ab7      0x38e c:/program files/microchip/xc32/v4.00/bin/bin/../../lib/gcc/pic32c/8.3.1/../../../../pic32c/lib/thumb/v7e-m+dp/hard\libc-musl.a(__fmt_x.o)
 .debug_line    0x00007e45      0x71f c:/program files/microchip/xc32/v4.00/bin/bin/../../lib/gcc/pic32c/8.3.1/../../../../pic32c/lib/thumb/v7e-m+dp/hard\libc-musl.a(__printf_core.o)
 .debug_line    0x00008564      0x177 c:/program files/microchip/xc32/v4.00/bin/bin/../../lib/gcc/pic32c/8.3.1/../../../../pic32c/lib/thumb/v7e-m+dp/hard\libc-musl.a(atoi.o)
 .debug_line    0x000086db       0xf2 c:/program files/microchip/xc32/v4.00/bin/bin/../../lib/gcc/pic32c/8.3.1/../../../../pic32c/lib/thumb/v7e-m+dp/hard\libc-musl.a(memcpy.o)
 .debug_line    0x000087cd       0xea c:/program files/microchip/xc32/v4.00/bin/bin/../../lib/gcc/pic32c/8.3.1/../../../../pic32c/lib/thumb/v7e-m+dp/hard\libc-musl.a(memset.o)
 .debug_line    0x000088b7       0xe6 c:/program files/microchip/xc32/v4.00/bin/bin/../../lib/gcc/pic32c/8.3.1/../../../../pic32c/lib/thumb/v7e-m+dp/hard\libc-musl.a(strlen.o)
 .debug_line    0x0000899d      0x1dc c:/program files/microchip/xc32/v4.00/bin/bin/../../lib/gcc/pic32c/8.3.1/../../../../pic32c/lib/thumb/v7e-m+dp/hard\libc-musl.a(tolower.o)
 .debug_line    0x00008b79      0x1dc c:/program files/microchip/xc32/v4.00/bin/bin/../../lib/gcc/pic32c/8.3.1/../../../../pic32c/lib/thumb/v7e-m+dp/hard\libc-musl.a(toupper.o)
 .debug_line    0x00008d55      0x19f c:/program files/microchip/xc32/v4.00/bin/bin/../../lib/gcc/pic32c/8.3.1/../../../../pic32c/lib/thumb/v7e-m+dp/hard\libc-musl.a(__environ.o)
 .debug_line    0x00008ef4      0x1ad c:/program files/microchip/xc32/v4.00/bin/bin/../../lib/gcc/pic32c/8.3.1/../../../../pic32c/lib/thumb/v7e-m+dp/hard\libc-musl.a(__errno_location.o)
 .debug_line    0x000090a1      0x1df c:/program files/microchip/xc32/v4.00/bin/bin/../../lib/gcc/pic32c/8.3.1/../../../../pic32c/lib/thumb/v7e-m+dp/hard\libc-musl.a(__int_vsprintf.o)
 .debug_line    0x00009280      0x1f7 c:/program files/microchip/xc32/v4.00/bin/bin/../../lib/gcc/pic32c/8.3.1/../../../../pic32c/lib/thumb/v7e-m+dp/hard\libc-musl.a(__pop_float.o)
 .debug_line    0x00009477      0x28d c:/program files/microchip/xc32/v4.00/bin/bin/../../lib/gcc/pic32c/8.3.1/../../../../pic32c/lib/thumb/v7e-m+dp/hard\libc-musl.a(__pop_int.o)
 .debug_line    0x00009704      0x272 c:/program files/microchip/xc32/v4.00/bin/bin/../../lib/gcc/pic32c/8.3.1/../../../../pic32c/lib/thumb/v7e-m+dp/hard\libc-musl.a(__pop_ptr.o)
 .debug_line    0x00009976      0x24d c:/program files/microchip/xc32/v4.00/bin/bin/../../lib/gcc/pic32c/8.3.1/../../../../pic32c/lib/thumb/v7e-m+dp/hard\libc-musl.a(__int_vsnprintf.o)
 .debug_line    0x00009bc3      0x20f c:/program files/microchip/xc32/v4.00/bin/bin/../../lib/gcc/pic32c/8.3.1/../../../../pic32c/lib/thumb/v7e-m+dp/hard\libc-musl.a(__int_vfprintf.o)
 .debug_line    0x00009dd2       0x9c c:/program files/microchip/xc32/v4.00/bin/bin/../../lib/gcc/pic32c/8.3.1/thumb/v7e-m+dp/hard\libgcc.a(_aeabi_uldivmod.o)
 .debug_line    0x00009e6e      0x57e c:/program files/microchip/xc32/v4.00/bin/bin/../../lib/gcc/pic32c/8.3.1/thumb/v7e-m+dp/hard\libgcc.a(_udivmoddi4.o)
 .debug_line    0x0000a3ec       0x9c c:/program files/microchip/xc32/v4.00/bin/bin/../../lib/gcc/pic32c/8.3.1/thumb/v7e-m+dp/hard\libgcc.a(_dvmd_tls.o)

.debug_str      0x00000000      0xe0a
 .debug_str     0x00000000        0x0 build/sam_v71_xult/production/_ext/1157990217/plib_clk.o
 .debug_str     0x00000000       0x14 build/sam_v71_xult/production/_ext/1157988489/plib_efc.o
 .debug_str     0x00000014       0xd0 build/sam_v71_xult/production/_ext/1537669298/plib_mcan1.o
 .debug_str     0x000000e4        0x0 build/sam_v71_xult/production/_ext/1157980473/plib_mpu.o
 .debug_str     0x000000e4       0x28 build/sam_v71_xult/production/_ext/1537621011/plib_nvic.o
 .debug_str     0x0000010c       0x46 build/sam_v71_xult/production/_ext/1157977813/plib_pio.o
 .debug_str     0x00000152       0xb1 build/sam_v71_xult/production/_ext/415242918/plib_usart1.o
 .debug_str     0x00000203       0x7d build/sam_v71_xult/production/_ext/1320227943/initialization.o
 .debug_str     0x00000280        0x0 build/sam_v71_xult/production/_ext/1320227943/interrupts.o
 .debug_str     0x00000280        0x0 build/sam_v71_xult/production/_ext/1320227943/exceptions.o
 .debug_str     0x00000280       0x3e build/sam_v71_xult/production/_ext/1320227943/startup_xc32.o
 .debug_str     0x000002be       0x25 build/sam_v71_xult/production/_ext/1320227943/freertos_hooks.o
 .debug_str     0x000002e3       0x36 build/sam_v71_xult/production/_ext/1320227943/tasks.o
 .debug_str     0x00000319       0x26 build/sam_v71_xult/production/_ext/977623654/port.o
 .debug_str     0x0000033f       0x1f build/sam_v71_xult/production/_ext/1665200909/heap_1.o
 .debug_str     0x0000035e       0x2b build/sam_v71_xult/production/_ext/404212886/list.o
 .debug_str     0x00000389      0x27f build/sam_v71_xult/production/_ext/404212886/queue.o
 .debug_str     0x00000608      0x275 build/sam_v71_xult/production/_ext/404212886/FreeRTOS_tasks.o
 .debug_str     0x0000087d       0x19 build/sam_v71_xult/production/_ext/1360937237/main_v71.o
 .debug_str     0x00000896      0x15f build/sam_v71_xult/production/_ext/1360937237/tarea_principal.o
 .debug_str     0x000009f5       0x9a build/sam_v71_xult/production/_ext/1563530619/mcan_fd_interrupt.o
 .debug_str     0x00000a8f       0xfa build/sam_v71_xult/production/_ext/1522961716/Uart1_FreeRTOS.o
 .debug_str     0x00000b89        0x0 c:/program files/microchip/xc32/v4.00/bin/bin/../../lib/gcc/pic32c/8.3.1/../../../../pic32c/lib/thumb/v7e-m+dp/hard\libpic32c.a(data_init.o)
 .debug_str     0x00000b89        0x0 c:/program files/microchip/xc32/v4.00/bin/bin/../../lib/gcc/pic32c/8.3.1/../../../../pic32c/lib/thumb/v7e-m+dp/hard\libc-musl.a(__libc_start_main.o)
 .debug_str     0x00000b89        0x0 c:/program files/microchip/xc32/v4.00/bin/bin/../../lib/gcc/pic32c/8.3.1/../../../../pic32c/lib/thumb/v7e-m+dp/hard\libc-musl.a(libc.o)
 .debug_str     0x00000b89       0x56 c:/program files/microchip/xc32/v4.00/bin/bin/../../lib/gcc/pic32c/8.3.1/../../../../pic32c/lib/thumb/v7e-m+dp/hard\libc-musl.a(__sio_sprintf_doux.o)
 .debug_str     0x00000bdf        0x0 c:/program files/microchip/xc32/v4.00/bin/bin/../../lib/gcc/pic32c/8.3.1/../../../../pic32c/lib/thumb/v7e-m+dp/hard\libc-musl.a(__fmt_d.o)
 .debug_str     0x00000bdf        0x0 c:/program files/microchip/xc32/v4.00/bin/bin/../../lib/gcc/pic32c/8.3.1/../../../../pic32c/lib/thumb/v7e-m+dp/hard\libc-musl.a(__fmt_o.o)
 .debug_str     0x00000bdf        0x0 c:/program files/microchip/xc32/v4.00/bin/bin/../../lib/gcc/pic32c/8.3.1/../../../../pic32c/lib/thumb/v7e-m+dp/hard\libc-musl.a(__fmt_s.o)
 .debug_str     0x00000bdf        0x6 c:/program files/microchip/xc32/v4.00/bin/bin/../../lib/gcc/pic32c/8.3.1/../../../../pic32c/lib/thumb/v7e-m+dp/hard\libc-musl.a(__fmt_u.o)
 .debug_str     0x00000be5        0x0 c:/program files/microchip/xc32/v4.00/bin/bin/../../lib/gcc/pic32c/8.3.1/../../../../pic32c/lib/thumb/v7e-m+dp/hard\libc-musl.a(__fmt_x.o)
 .debug_str     0x00000be5       0x20 c:/program files/microchip/xc32/v4.00/bin/bin/../../lib/gcc/pic32c/8.3.1/../../../../pic32c/lib/thumb/v7e-m+dp/hard\libc-musl.a(__printf_core.o)
 .debug_str     0x00000c05        0x0 c:/program files/microchip/xc32/v4.00/bin/bin/../../lib/gcc/pic32c/8.3.1/../../../../pic32c/lib/thumb/v7e-m+dp/hard\libc-musl.a(atoi.o)
 .debug_str     0x00000c05        0x0 c:/program files/microchip/xc32/v4.00/bin/bin/../../lib/gcc/pic32c/8.3.1/../../../../pic32c/lib/thumb/v7e-m+dp/hard\libc-musl.a(memcpy.o)
 .debug_str     0x00000c05        0x0 c:/program files/microchip/xc32/v4.00/bin/bin/../../lib/gcc/pic32c/8.3.1/../../../../pic32c/lib/thumb/v7e-m+dp/hard\libc-musl.a(memset.o)
 .debug_str     0x00000c05        0x0 c:/program files/microchip/xc32/v4.00/bin/bin/../../lib/gcc/pic32c/8.3.1/../../../../pic32c/lib/thumb/v7e-m+dp/hard\libc-musl.a(strlen.o)
 .debug_str     0x00000c05        0x0 c:/program files/microchip/xc32/v4.00/bin/bin/../../lib/gcc/pic32c/8.3.1/../../../../pic32c/lib/thumb/v7e-m+dp/hard\libc-musl.a(tolower.o)
 .debug_str     0x00000c05        0x0 c:/program files/microchip/xc32/v4.00/bin/bin/../../lib/gcc/pic32c/8.3.1/../../../../pic32c/lib/thumb/v7e-m+dp/hard\libc-musl.a(toupper.o)
 .debug_str     0x00000c05        0x0 c:/program files/microchip/xc32/v4.00/bin/bin/../../lib/gcc/pic32c/8.3.1/../../../../pic32c/lib/thumb/v7e-m+dp/hard\libc-musl.a(__environ.o)
 .debug_str     0x00000c05        0x0 c:/program files/microchip/xc32/v4.00/bin/bin/../../lib/gcc/pic32c/8.3.1/../../../../pic32c/lib/thumb/v7e-m+dp/hard\libc-musl.a(__errno_location.o)
 .debug_str     0x00000c05        0xc c:/program files/microchip/xc32/v4.00/bin/bin/../../lib/gcc/pic32c/8.3.1/../../../../pic32c/lib/thumb/v7e-m+dp/hard\libc-musl.a(__int_vsprintf.o)
 .debug_str     0x00000c11        0x0 c:/program files/microchip/xc32/v4.00/bin/bin/../../lib/gcc/pic32c/8.3.1/../../../../pic32c/lib/thumb/v7e-m+dp/hard\libc-musl.a(__pop_float.o)
 .debug_str     0x00000c11        0x0 c:/program files/microchip/xc32/v4.00/bin/bin/../../lib/gcc/pic32c/8.3.1/../../../../pic32c/lib/thumb/v7e-m+dp/hard\libc-musl.a(__pop_int.o)
 .debug_str     0x00000c11        0x0 c:/program files/microchip/xc32/v4.00/bin/bin/../../lib/gcc/pic32c/8.3.1/../../../../pic32c/lib/thumb/v7e-m+dp/hard\libc-musl.a(__pop_ptr.o)
 .debug_str     0x00000c11        0xb c:/program files/microchip/xc32/v4.00/bin/bin/../../lib/gcc/pic32c/8.3.1/../../../../pic32c/lib/thumb/v7e-m+dp/hard\libc-musl.a(__int_vsnprintf.o)
 .debug_str     0x00000c1c        0xe c:/program files/microchip/xc32/v4.00/bin/bin/../../lib/gcc/pic32c/8.3.1/../../../../pic32c/lib/thumb/v7e-m+dp/hard\libc-musl.a(__int_vfprintf.o)
 .debug_str     0x00000c2a       0xee c:/program files/microchip/xc32/v4.00/bin/bin/../../lib/gcc/pic32c/8.3.1/thumb/v7e-m+dp/hard\libgcc.a(_aeabi_uldivmod.o)
 .debug_str     0x00000d18        0x0 c:/program files/microchip/xc32/v4.00/bin/bin/../../lib/gcc/pic32c/8.3.1/thumb/v7e-m+dp/hard\libgcc.a(_udivmoddi4.o)
 .debug_str     0x00000d18       0xf2 c:/program files/microchip/xc32/v4.00/bin/bin/../../lib/gcc/pic32c/8.3.1/thumb/v7e-m+dp/hard\libgcc.a(_dvmd_tls.o)

.debug_frame    0x00000000     0x172c
 .debug_frame   0x00000000       0x20 build/sam_v71_xult/production/_ext/1157990217/plib_clk.o
 .debug_frame   0x00000020       0xc0 build/sam_v71_xult/production/_ext/1157988489/plib_efc.o
 .debug_frame   0x000000e0      0x1e4 build/sam_v71_xult/production/_ext/1537669298/plib_mcan1.o
 .debug_frame   0x000002c4       0x20 build/sam_v71_xult/production/_ext/1157980473/plib_mpu.o
 .debug_frame   0x000002e4       0x50 build/sam_v71_xult/production/_ext/1537621011/plib_nvic.o
 .debug_frame   0x00000334       0xa0 build/sam_v71_xult/production/_ext/1157977813/plib_pio.o
 .debug_frame   0x000003d4      0x1a0 build/sam_v71_xult/production/_ext/415242918/plib_usart1.o
 .debug_frame   0x00000574       0x28 build/sam_v71_xult/production/_ext/1320227943/initialization.o
 .debug_frame   0x0000059c       0x20 build/sam_v71_xult/production/_ext/1320227943/interrupts.o
 .debug_frame   0x000005bc       0x70 build/sam_v71_xult/production/_ext/1320227943/exceptions.o
 .debug_frame   0x0000062c       0x38 build/sam_v71_xult/production/_ext/1320227943/startup_xc32.o
 .debug_frame   0x00000664       0x6c build/sam_v71_xult/production/_ext/1320227943/freertos_hooks.o
 .debug_frame   0x000006d0       0x44 build/sam_v71_xult/production/_ext/1320227943/tasks.o
 .debug_frame   0x00000714       0xe8 build/sam_v71_xult/production/_ext/977623654/port.o
 .debug_frame   0x000007fc       0x5c build/sam_v71_xult/production/_ext/1665200909/heap_1.o
 .debug_frame   0x00000858       0x6c build/sam_v71_xult/production/_ext/404212886/list.o
 .debug_frame   0x000008c4      0x280 build/sam_v71_xult/production/_ext/404212886/queue.o
 .debug_frame   0x00000b44      0x46c build/sam_v71_xult/production/_ext/404212886/FreeRTOS_tasks.o
 .debug_frame   0x00000fb0       0x28 build/sam_v71_xult/production/_ext/1360937237/main_v71.o
 .debug_frame   0x00000fd8       0xb0 build/sam_v71_xult/production/_ext/1360937237/tarea_principal.o
 .debug_frame   0x00001088       0xb0 build/sam_v71_xult/production/_ext/1563530619/mcan_fd_interrupt.o
 .debug_frame   0x00001138       0xcc build/sam_v71_xult/production/_ext/1522961716/Uart1_FreeRTOS.o
 .debug_frame   0x00001204       0x38 c:/program files/microchip/xc32/v4.00/bin/bin/../../lib/gcc/pic32c/8.3.1/../../../../pic32c/lib/thumb/v7e-m+dp/hard\libpic32c.a(data_init.o)
 .debug_frame   0x0000123c       0x3c c:/program files/microchip/xc32/v4.00/bin/bin/../../lib/gcc/pic32c/8.3.1/../../../../pic32c/lib/thumb/v7e-m+dp/hard\libc-musl.a(__libc_start_main.o)
 .debug_frame   0x00001278       0x58 c:/program files/microchip/xc32/v4.00/bin/bin/../../lib/gcc/pic32c/8.3.1/../../../../pic32c/lib/thumb/v7e-m+dp/hard\libc-musl.a(__sio_sprintf_doux.o)
 .debug_frame   0x000012d0       0x3c c:/program files/microchip/xc32/v4.00/bin/bin/../../lib/gcc/pic32c/8.3.1/../../../../pic32c/lib/thumb/v7e-m+dp/hard\libc-musl.a(__fmt_d.o)
 .debug_frame   0x0000130c       0x34 c:/program files/microchip/xc32/v4.00/bin/bin/../../lib/gcc/pic32c/8.3.1/../../../../pic32c/lib/thumb/v7e-m+dp/hard\libc-musl.a(__fmt_o.o)
 .debug_frame   0x00001340       0x34 c:/program files/microchip/xc32/v4.00/bin/bin/../../lib/gcc/pic32c/8.3.1/../../../../pic32c/lib/thumb/v7e-m+dp/hard\libc-musl.a(__fmt_s.o)
 .debug_frame   0x00001374       0x5c c:/program files/microchip/xc32/v4.00/bin/bin/../../lib/gcc/pic32c/8.3.1/../../../../pic32c/lib/thumb/v7e-m+dp/hard\libc-musl.a(__fmt_u.o)
 .debug_frame   0x000013d0       0x40 c:/program files/microchip/xc32/v4.00/bin/bin/../../lib/gcc/pic32c/8.3.1/../../../../pic32c/lib/thumb/v7e-m+dp/hard\libc-musl.a(__fmt_x.o)
 .debug_frame   0x00001410       0xd8 c:/program files/microchip/xc32/v4.00/bin/bin/../../lib/gcc/pic32c/8.3.1/../../../../pic32c/lib/thumb/v7e-m+dp/hard\libc-musl.a(__printf_core.o)
 .debug_frame   0x000014e8       0x28 c:/program files/microchip/xc32/v4.00/bin/bin/../../lib/gcc/pic32c/8.3.1/../../../../pic32c/lib/thumb/v7e-m+dp/hard\libc-musl.a(atoi.o)
 .debug_frame   0x00001510       0x28 c:/program files/microchip/xc32/v4.00/bin/bin/../../lib/gcc/pic32c/8.3.1/../../../../pic32c/lib/thumb/v7e-m+dp/hard\libc-musl.a(memcpy.o)
 .debug_frame   0x00001538       0x20 c:/program files/microchip/xc32/v4.00/bin/bin/../../lib/gcc/pic32c/8.3.1/../../../../pic32c/lib/thumb/v7e-m+dp/hard\libc-musl.a(memset.o)
 .debug_frame   0x00001558       0x20 c:/program files/microchip/xc32/v4.00/bin/bin/../../lib/gcc/pic32c/8.3.1/../../../../pic32c/lib/thumb/v7e-m+dp/hard\libc-musl.a(strlen.o)
 .debug_frame   0x00001578       0x30 c:/program files/microchip/xc32/v4.00/bin/bin/../../lib/gcc/pic32c/8.3.1/../../../../pic32c/lib/thumb/v7e-m+dp/hard\libc-musl.a(tolower.o)
 .debug_frame   0x000015a8       0x30 c:/program files/microchip/xc32/v4.00/bin/bin/../../lib/gcc/pic32c/8.3.1/../../../../pic32c/lib/thumb/v7e-m+dp/hard\libc-musl.a(toupper.o)
 .debug_frame   0x000015d8       0x20 c:/program files/microchip/xc32/v4.00/bin/bin/../../lib/gcc/pic32c/8.3.1/../../../../pic32c/lib/thumb/v7e-m+dp/hard\libc-musl.a(__int_vsprintf.o)
 .debug_frame   0x000015f8       0x20 c:/program files/microchip/xc32/v4.00/bin/bin/../../lib/gcc/pic32c/8.3.1/../../../../pic32c/lib/thumb/v7e-m+dp/hard\libc-musl.a(__pop_float.o)
 .debug_frame   0x00001618       0x2c c:/program files/microchip/xc32/v4.00/bin/bin/../../lib/gcc/pic32c/8.3.1/../../../../pic32c/lib/thumb/v7e-m+dp/hard\libc-musl.a(__pop_int.o)
 .debug_frame   0x00001644       0x28 c:/program files/microchip/xc32/v4.00/bin/bin/../../lib/gcc/pic32c/8.3.1/../../../../pic32c/lib/thumb/v7e-m+dp/hard\libc-musl.a(__pop_ptr.o)
 .debug_frame   0x0000166c       0x34 c:/program files/microchip/xc32/v4.00/bin/bin/../../lib/gcc/pic32c/8.3.1/../../../../pic32c/lib/thumb/v7e-m+dp/hard\libc-musl.a(__int_vsnprintf.o)
 .debug_frame   0x000016a0       0x2c c:/program files/microchip/xc32/v4.00/bin/bin/../../lib/gcc/pic32c/8.3.1/../../../../pic32c/lib/thumb/v7e-m+dp/hard\libc-musl.a(__int_vfprintf.o)
 .debug_frame   0x000016cc       0x2c c:/program files/microchip/xc32/v4.00/bin/bin/../../lib/gcc/pic32c/8.3.1/thumb/v7e-m+dp/hard\libgcc.a(_aeabi_uldivmod.o)
 .debug_frame   0x000016f8       0x34 c:/program files/microchip/xc32/v4.00/bin/bin/../../lib/gcc/pic32c/8.3.1/thumb/v7e-m+dp/hard\libgcc.a(_udivmoddi4.o)

.debug_loc      0x00000000     0x8e8f
 .debug_loc     0x00000000      0x458 build/sam_v71_xult/production/_ext/1157988489/plib_efc.o
 .debug_loc     0x00000458      0xdb4 build/sam_v71_xult/production/_ext/1537669298/plib_mcan1.o
 .debug_loc     0x0000120c      0x126 build/sam_v71_xult/production/_ext/1537621011/plib_nvic.o
 .debug_loc     0x00001332       0x94 build/sam_v71_xult/production/_ext/1157977813/plib_pio.o
 .debug_loc     0x000013c6      0xa86 build/sam_v71_xult/production/_ext/415242918/plib_usart1.o
 .debug_loc     0x00001e4c       0x45 build/sam_v71_xult/production/_ext/1320227943/initialization.o
 .debug_loc     0x00001e91       0xa7 build/sam_v71_xult/production/_ext/1320227943/startup_xc32.o
 .debug_loc     0x00001f38       0x82 build/sam_v71_xult/production/_ext/1320227943/freertos_hooks.o
 .debug_loc     0x00001fba       0x7d build/sam_v71_xult/production/_ext/1320227943/tasks.o
 .debug_loc     0x00002037      0x13a build/sam_v71_xult/production/_ext/977623654/port.o
 .debug_loc     0x00002171       0x80 build/sam_v71_xult/production/_ext/1665200909/heap_1.o
 .debug_loc     0x000021f1       0xbf build/sam_v71_xult/production/_ext/404212886/list.o
 .debug_loc     0x000022b0     0x16e4 build/sam_v71_xult/production/_ext/404212886/queue.o
 .debug_loc     0x00003994     0x20f2 build/sam_v71_xult/production/_ext/404212886/FreeRTOS_tasks.o
 .debug_loc     0x00005a86       0x20 build/sam_v71_xult/production/_ext/1360937237/main_v71.o
 .debug_loc     0x00005aa6      0x25f build/sam_v71_xult/production/_ext/1360937237/tarea_principal.o
 .debug_loc     0x00005d05      0x3db build/sam_v71_xult/production/_ext/1563530619/mcan_fd_interrupt.o
 .debug_loc     0x000060e0      0x23a build/sam_v71_xult/production/_ext/1522961716/Uart1_FreeRTOS.o
 .debug_loc     0x0000631a       0x14 c:/program files/microchip/xc32/v4.00/bin/bin/../../lib/gcc/pic32c/8.3.1/../../../../pic32c/lib/thumb/v7e-m+dp/hard\libpic32c.a(data_init.o)
 .debug_loc     0x0000632e       0x51 c:/program files/microchip/xc32/v4.00/bin/bin/../../lib/gcc/pic32c/8.3.1/../../../../pic32c/lib/thumb/v7e-m+dp/hard\libc-musl.a(__libc_start_main.o)
 .debug_loc     0x0000637f       0xb6 c:/program files/microchip/xc32/v4.00/bin/bin/../../lib/gcc/pic32c/8.3.1/../../../../pic32c/lib/thumb/v7e-m+dp/hard\libc-musl.a(__sio_sprintf_doux.o)
 .debug_loc     0x00006435      0x1ef c:/program files/microchip/xc32/v4.00/bin/bin/../../lib/gcc/pic32c/8.3.1/../../../../pic32c/lib/thumb/v7e-m+dp/hard\libc-musl.a(__fmt_d.o)
 .debug_loc     0x00006624      0x10a c:/program files/microchip/xc32/v4.00/bin/bin/../../lib/gcc/pic32c/8.3.1/../../../../pic32c/lib/thumb/v7e-m+dp/hard\libc-musl.a(__fmt_o.o)
 .debug_loc     0x0000672e      0x157 c:/program files/microchip/xc32/v4.00/bin/bin/../../lib/gcc/pic32c/8.3.1/../../../../pic32c/lib/thumb/v7e-m+dp/hard\libc-musl.a(__fmt_s.o)
 .debug_loc     0x00006885      0x2a2 c:/program files/microchip/xc32/v4.00/bin/bin/../../lib/gcc/pic32c/8.3.1/../../../../pic32c/lib/thumb/v7e-m+dp/hard\libc-musl.a(__fmt_u.o)
 .debug_loc     0x00006b27      0x2a8 c:/program files/microchip/xc32/v4.00/bin/bin/../../lib/gcc/pic32c/8.3.1/../../../../pic32c/lib/thumb/v7e-m+dp/hard\libc-musl.a(__fmt_x.o)
 .debug_loc     0x00006dcf      0x638 c:/program files/microchip/xc32/v4.00/bin/bin/../../lib/gcc/pic32c/8.3.1/../../../../pic32c/lib/thumb/v7e-m+dp/hard\libc-musl.a(__printf_core.o)
 .debug_loc     0x00007407       0xd8 c:/program files/microchip/xc32/v4.00/bin/bin/../../lib/gcc/pic32c/8.3.1/../../../../pic32c/lib/thumb/v7e-m+dp/hard\libc-musl.a(atoi.o)
 .debug_loc     0x000074df       0xba c:/program files/microchip/xc32/v4.00/bin/bin/../../lib/gcc/pic32c/8.3.1/../../../../pic32c/lib/thumb/v7e-m+dp/hard\libc-musl.a(memcpy.o)
 .debug_loc     0x00007599       0x56 c:/program files/microchip/xc32/v4.00/bin/bin/../../lib/gcc/pic32c/8.3.1/../../../../pic32c/lib/thumb/v7e-m+dp/hard\libc-musl.a(memset.o)
 .debug_loc     0x000075ef       0x47 c:/program files/microchip/xc32/v4.00/bin/bin/../../lib/gcc/pic32c/8.3.1/../../../../pic32c/lib/thumb/v7e-m+dp/hard\libc-musl.a(strlen.o)
 .debug_loc     0x00007636       0x4a c:/program files/microchip/xc32/v4.00/bin/bin/../../lib/gcc/pic32c/8.3.1/../../../../pic32c/lib/thumb/v7e-m+dp/hard\libc-musl.a(tolower.o)
 .debug_loc     0x00007680       0x4a c:/program files/microchip/xc32/v4.00/bin/bin/../../lib/gcc/pic32c/8.3.1/../../../../pic32c/lib/thumb/v7e-m+dp/hard\libc-musl.a(toupper.o)
 .debug_loc     0x000076ca       0x6c c:/program files/microchip/xc32/v4.00/bin/bin/../../lib/gcc/pic32c/8.3.1/../../../../pic32c/lib/thumb/v7e-m+dp/hard\libc-musl.a(__int_vsprintf.o)
 .debug_loc     0x00007736       0xa6 c:/program files/microchip/xc32/v4.00/bin/bin/../../lib/gcc/pic32c/8.3.1/../../../../pic32c/lib/thumb/v7e-m+dp/hard\libc-musl.a(__pop_float.o)
 .debug_loc     0x000077dc      0x312 c:/program files/microchip/xc32/v4.00/bin/bin/../../lib/gcc/pic32c/8.3.1/../../../../pic32c/lib/thumb/v7e-m+dp/hard\libc-musl.a(__pop_int.o)
 .debug_loc     0x00007aee      0x1db c:/program files/microchip/xc32/v4.00/bin/bin/../../lib/gcc/pic32c/8.3.1/../../../../pic32c/lib/thumb/v7e-m+dp/hard\libc-musl.a(__pop_ptr.o)
 .debug_loc     0x00007cc9       0xfd c:/program files/microchip/xc32/v4.00/bin/bin/../../lib/gcc/pic32c/8.3.1/../../../../pic32c/lib/thumb/v7e-m+dp/hard\libc-musl.a(__int_vsnprintf.o)
 .debug_loc     0x00007dc6       0x88 c:/program files/microchip/xc32/v4.00/bin/bin/../../lib/gcc/pic32c/8.3.1/../../../../pic32c/lib/thumb/v7e-m+dp/hard\libc-musl.a(__int_vfprintf.o)
 .debug_loc     0x00007e4e     0x1041 c:/program files/microchip/xc32/v4.00/bin/bin/../../lib/gcc/pic32c/8.3.1/thumb/v7e-m+dp/hard\libgcc.a(_udivmoddi4.o)

.note.GNU-stack
                0x00000000        0x0
 .note.GNU-stack
                0x00000000        0x0 c:/program files/microchip/xc32/v4.00/bin/bin/../../lib/gcc/pic32c/8.3.1/../../../../pic32c/lib/thumb/v7e-m+dp/hard\libc-musl.a(__libc_start_main.o)
 .note.GNU-stack
                0x00000000        0x0 c:/program files/microchip/xc32/v4.00/bin/bin/../../lib/gcc/pic32c/8.3.1/../../../../pic32c/lib/thumb/v7e-m+dp/hard\libc-musl.a(libc.o)
 .note.GNU-stack
                0x00000000        0x0 c:/program files/microchip/xc32/v4.00/bin/bin/../../lib/gcc/pic32c/8.3.1/../../../../pic32c/lib/thumb/v7e-m+dp/hard\libc-musl.a(__sio_sprintf_doux.o)
 .note.GNU-stack
                0x00000000        0x0 c:/program files/microchip/xc32/v4.00/bin/bin/../../lib/gcc/pic32c/8.3.1/../../../../pic32c/lib/thumb/v7e-m+dp/hard\libc-musl.a(__fmt_d.o)
 .note.GNU-stack
                0x00000000        0x0 c:/program files/microchip/xc32/v4.00/bin/bin/../../lib/gcc/pic32c/8.3.1/../../../../pic32c/lib/thumb/v7e-m+dp/hard\libc-musl.a(__fmt_o.o)
 .note.GNU-stack
                0x00000000        0x0 c:/program files/microchip/xc32/v4.00/bin/bin/../../lib/gcc/pic32c/8.3.1/../../../../pic32c/lib/thumb/v7e-m+dp/hard\libc-musl.a(__fmt_s.o)
 .note.GNU-stack
                0x00000000        0x0 c:/program files/microchip/xc32/v4.00/bin/bin/../../lib/gcc/pic32c/8.3.1/../../../../pic32c/lib/thumb/v7e-m+dp/hard\libc-musl.a(__fmt_u.o)
 .note.GNU-stack
                0x00000000        0x0 c:/program files/microchip/xc32/v4.00/bin/bin/../../lib/gcc/pic32c/8.3.1/../../../../pic32c/lib/thumb/v7e-m+dp/hard\libc-musl.a(__fmt_x.o)
 .note.GNU-stack
                0x00000000        0x0 c:/program files/microchip/xc32/v4.00/bin/bin/../../lib/gcc/pic32c/8.3.1/../../../../pic32c/lib/thumb/v7e-m+dp/hard\libc-musl.a(__printf_core.o)
 .note.GNU-stack
                0x00000000        0x0 c:/program files/microchip/xc32/v4.00/bin/bin/../../lib/gcc/pic32c/8.3.1/../../../../pic32c/lib/thumb/v7e-m+dp/hard\libc-musl.a(atoi.o)
 .note.GNU-stack
                0x00000000        0x0 c:/program files/microchip/xc32/v4.00/bin/bin/../../lib/gcc/pic32c/8.3.1/../../../../pic32c/lib/thumb/v7e-m+dp/hard\libc-musl.a(memcpy.o)
 .note.GNU-stack
                0x00000000        0x0 c:/program files/microchip/xc32/v4.00/bin/bin/../../lib/gcc/pic32c/8.3.1/../../../../pic32c/lib/thumb/v7e-m+dp/hard\libc-musl.a(memset.o)
 .note.GNU-stack
                0x00000000        0x0 c:/program files/microchip/xc32/v4.00/bin/bin/../../lib/gcc/pic32c/8.3.1/../../../../pic32c/lib/thumb/v7e-m+dp/hard\libc-musl.a(strlen.o)
 .note.GNU-stack
                0x00000000        0x0 c:/program files/microchip/xc32/v4.00/bin/bin/../../lib/gcc/pic32c/8.3.1/../../../../pic32c/lib/thumb/v7e-m+dp/hard\libc-musl.a(tolower.o)
 .note.GNU-stack
                0x00000000        0x0 c:/program files/microchip/xc32/v4.00/bin/bin/../../lib/gcc/pic32c/8.3.1/../../../../pic32c/lib/thumb/v7e-m+dp/hard\libc-musl.a(toupper.o)
 .note.GNU-stack
                0x00000000        0x0 c:/program files/microchip/xc32/v4.00/bin/bin/../../lib/gcc/pic32c/8.3.1/../../../../pic32c/lib/thumb/v7e-m+dp/hard\libc-musl.a(__environ.o)
 .note.GNU-stack
                0x00000000        0x0 c:/program files/microchip/xc32/v4.00/bin/bin/../../lib/gcc/pic32c/8.3.1/../../../../pic32c/lib/thumb/v7e-m+dp/hard\libc-musl.a(__errno_location.o)
 .note.GNU-stack
                0x00000000        0x0 c:/program files/microchip/xc32/v4.00/bin/bin/../../lib/gcc/pic32c/8.3.1/../../../../pic32c/lib/thumb/v7e-m+dp/hard\libc-musl.a(__int_vsprintf.o)
 .note.GNU-stack
                0x00000000        0x0 c:/program files/microchip/xc32/v4.00/bin/bin/../../lib/gcc/pic32c/8.3.1/../../../../pic32c/lib/thumb/v7e-m+dp/hard\libc-musl.a(__pop_float.o)
 .note.GNU-stack
                0x00000000        0x0 c:/program files/microchip/xc32/v4.00/bin/bin/../../lib/gcc/pic32c/8.3.1/../../../../pic32c/lib/thumb/v7e-m+dp/hard\libc-musl.a(__pop_int.o)
 .note.GNU-stack
                0x00000000        0x0 c:/program files/microchip/xc32/v4.00/bin/bin/../../lib/gcc/pic32c/8.3.1/../../../../pic32c/lib/thumb/v7e-m+dp/hard\libc-musl.a(__pop_ptr.o)
 .note.GNU-stack
                0x00000000        0x0 c:/program files/microchip/xc32/v4.00/bin/bin/../../lib/gcc/pic32c/8.3.1/../../../../pic32c/lib/thumb/v7e-m+dp/hard\libc-musl.a(__int_vsnprintf.o)
 .note.GNU-stack
                0x00000000        0x0 c:/program files/microchip/xc32/v4.00/bin/bin/../../lib/gcc/pic32c/8.3.1/../../../../pic32c/lib/thumb/v7e-m+dp/hard\libc-musl.a(__int_vfprintf.o)

.stack          0x2040a760      0x100
 .stack         0x2040a760      0x100 stack

.bss.ucHeap%1   0x20400000     0xa000
 .bss.ucHeap    0x20400000     0xa000 build/sam_v71_xult/production/_ext/1665200909/heap_1.o

.ram_nocache.Can1MessageRAM%2
                0x2040a000      0x140
 .ram_nocache.Can1MessageRAM
                0x2040a000      0x140 build/sam_v71_xult/production/_ext/1360937237/tarea_principal.o
                0x2040a000                Can1MessageRAM

.bss.USART1_ReadBuffer%3
                0x2040a140       0x80
 .bss.USART1_ReadBuffer
                0x2040a140       0x80 build/sam_v71_xult/production/_ext/415242918/plib_usart1.o

.bss.USART1_WriteBuffer%4
                0x2040a1c0       0x80
 .bss.USART1_WriteBuffer
                0x2040a1c0       0x80 build/sam_v71_xult/production/_ext/415242918/plib_usart1.o

.bss.pxReadyTasksLists%5
                0x2040a240       0x64
 .bss.pxReadyTasksLists
                0x2040a240       0x64 build/sam_v71_xult/production/_ext/404212886/FreeRTOS_tasks.o

.bss%6          0x2040a2a4       0x50
 .bss           0x2040a2a4       0x50 c:/program files/microchip/xc32/v4.00/bin/bin/../../lib/gcc/pic32c/8.3.1/../../../../pic32c/lib/thumb/v7e-m+dp/hard\libc-musl.a(libc.o)
                0x2040a2a4                __progname_full
                0x2040a2a4                program_invocation_name
                0x2040a2a8                program_invocation_short_name
                0x2040a2a8                __progname
                0x2040a2ac                __sysinfo
                0x2040a2b0                __hwcap
                0x2040a2b4                __libc

.bss.usart1Obj%7
                0x2040a2f4       0x40
 .bss.usart1Obj
                0x2040a2f4       0x40 build/sam_v71_xult/production/_ext/415242918/plib_usart1.o
                0x2040a2f4                usart1Obj

.bss.message.9604%8
                0x2040a334       0x40
 .bss.message.9604
                0x2040a334       0x40 build/sam_v71_xult/production/_ext/1360937237/tarea_principal.o

.bss.rx_message%9
                0x2040a374       0x40
 .bss.rx_message
                0x2040a374       0x40 build/sam_v71_xult/production/_ext/1360937237/tarea_principal.o

.bss.mcan1RxMsg%10
                0x2040a3b4       0x3c
 .bss.mcan1RxMsg
                0x2040a3b4       0x3c build/sam_v71_xult/production/_ext/1537669298/plib_mcan1.o

.bss.mcan1Obj%11
                0x2040a3f0       0x28
 .bss.mcan1Obj  0x2040a3f0       0x28 build/sam_v71_xult/production/_ext/1537669298/plib_mcan1.o

.bss.mcan1CallbackObj%12
                0x2040a418       0x20
 .bss.mcan1CallbackObj
                0x2040a418       0x20 build/sam_v71_xult/production/_ext/1537669298/plib_mcan1.o

.bss%13         0x2040a438       0x1c
 .bss           0x2040a438       0x1c c:/program files/microchip/xc32/v4.00/bin/bin/../../lib/gcc/pic32c/8.3.1/thumb/v7e-m+dp/hard/crtbegin.o

.bss.xDelayedTaskList1%14
                0x2040a454       0x14
 .bss.xDelayedTaskList1
                0x2040a454       0x14 build/sam_v71_xult/production/_ext/404212886/FreeRTOS_tasks.o

.bss.xDelayedTaskList2%15
                0x2040a468       0x14
 .bss.xDelayedTaskList2
                0x2040a468       0x14 build/sam_v71_xult/production/_ext/404212886/FreeRTOS_tasks.o

.bss.xPendingReadyList%16
                0x2040a47c       0x14
 .bss.xPendingReadyList
                0x2040a47c       0x14 build/sam_v71_xult/production/_ext/404212886/FreeRTOS_tasks.o

.bss.xSuspendedTaskList%17
                0x2040a490       0x14
 .bss.xSuspendedTaskList
                0x2040a490       0x14 build/sam_v71_xult/production/_ext/404212886/FreeRTOS_tasks.o

.bss.xTasksWaitingTermination%18
                0x2040a4a4       0x14
 .bss.xTasksWaitingTermination
                0x2040a4a4       0x14 build/sam_v71_xult/production/_ext/404212886/FreeRTOS_tasks.o

.bss.cmd.7930%19
                0x2040a4b8        0x4
 .bss.cmd.7930  0x2040a4b8        0x4 build/sam_v71_xult/production/_ext/1320227943/startup_xc32.o

.bss.xTAREA_PRINCIPAL_Tasks%20
                0x2040a4bc        0x4
 .bss.xTAREA_PRINCIPAL_Tasks
                0x2040a4bc        0x4 build/sam_v71_xult/production/_ext/1320227943/tasks.o
                0x2040a4bc                xTAREA_PRINCIPAL_Tasks

.data.uxCriticalNesting%21
                0x2040a4c0        0x4
 .data.uxCriticalNesting
                0x2040a4c0        0x4 build/sam_v71_xult/production/_ext/977623654/port.o

.bss.pucAlignedHeap.6163%22
                0x2040a4c4        0x4
 .bss.pucAlignedHeap.6163
                0x2040a4c4        0x4 build/sam_v71_xult/production/_ext/1665200909/heap_1.o

.bss.xNextFreeByte%23
                0x2040a4c8        0x4
 .bss.xNextFreeByte
                0x2040a4c8        0x4 build/sam_v71_xult/production/_ext/1665200909/heap_1.o

.bss.pxCurrentTCB%24
                0x2040a4cc        0x4
 .bss.pxCurrentTCB
                0x2040a4cc        0x4 build/sam_v71_xult/production/_ext/404212886/FreeRTOS_tasks.o
                0x2040a4cc                pxCurrentTCB

.bss.pxDelayedTaskList%25
                0x2040a4d0        0x4
 .bss.pxDelayedTaskList
                0x2040a4d0        0x4 build/sam_v71_xult/production/_ext/404212886/FreeRTOS_tasks.o

.bss.pxOverflowDelayedTaskList%26
                0x2040a4d4        0x4
 .bss.pxOverflowDelayedTaskList
                0x2040a4d4        0x4 build/sam_v71_xult/production/_ext/404212886/FreeRTOS_tasks.o

.bss.uxCurrentNumberOfTasks%27
                0x2040a4d8        0x4
 .bss.uxCurrentNumberOfTasks
                0x2040a4d8        0x4 build/sam_v71_xult/production/_ext/404212886/FreeRTOS_tasks.o

.bss.uxDeletedTasksWaitingCleanUp%28
                0x2040a4dc        0x4
 .bss.uxDeletedTasksWaitingCleanUp
                0x2040a4dc        0x4 build/sam_v71_xult/production/_ext/404212886/FreeRTOS_tasks.o

.bss.uxSchedulerSuspended%29
                0x2040a4e0        0x4
 .bss.uxSchedulerSuspended
                0x2040a4e0        0x4 build/sam_v71_xult/production/_ext/404212886/FreeRTOS_tasks.o

.bss.uxTaskNumber%30
                0x2040a4e4        0x4
 .bss.uxTaskNumber
                0x2040a4e4        0x4 build/sam_v71_xult/production/_ext/404212886/FreeRTOS_tasks.o

.bss.uxTopReadyPriority%31
                0x2040a4e8        0x4
 .bss.uxTopReadyPriority
                0x2040a4e8        0x4 build/sam_v71_xult/production/_ext/404212886/FreeRTOS_tasks.o

.bss.xIdleTaskHandle%32
                0x2040a4ec        0x4
 .bss.xIdleTaskHandle
                0x2040a4ec        0x4 build/sam_v71_xult/production/_ext/404212886/FreeRTOS_tasks.o

.bss.xNextTaskUnblockTime%33
                0x2040a4f0        0x4
 .bss.xNextTaskUnblockTime
                0x2040a4f0        0x4 build/sam_v71_xult/production/_ext/404212886/FreeRTOS_tasks.o

.bss.xNumOfOverflows%34
                0x2040a4f4        0x4
 .bss.xNumOfOverflows
                0x2040a4f4        0x4 build/sam_v71_xult/production/_ext/404212886/FreeRTOS_tasks.o

.bss.xPendedTicks%35
                0x2040a4f8        0x4
 .bss.xPendedTicks
                0x2040a4f8        0x4 build/sam_v71_xult/production/_ext/404212886/FreeRTOS_tasks.o

.bss.xSchedulerRunning%36
                0x2040a4fc        0x4
 .bss.xSchedulerRunning
                0x2040a4fc        0x4 build/sam_v71_xult/production/_ext/404212886/FreeRTOS_tasks.o

.bss.xTickCount%37
                0x2040a500        0x4
 .bss.xTickCount
                0x2040a500        0x4 build/sam_v71_xult/production/_ext/404212886/FreeRTOS_tasks.o

.bss.xYieldPending%38
                0x2040a504        0x4
 .bss.xYieldPending
                0x2040a504        0x4 build/sam_v71_xult/production/_ext/404212886/FreeRTOS_tasks.o

.bss.canMutexLock%39
                0x2040a508        0x4
 .bss.canMutexLock
                0x2040a508        0x4 build/sam_v71_xult/production/_ext/1360937237/tarea_principal.o
                0x2040a508                canMutexLock

.bss.message.9599%40
                0x2040a50c        0x4
 .bss.message.9599
                0x2040a50c        0x4 build/sam_v71_xult/production/_ext/1360937237/tarea_principal.o

.bss.rx_messageID%41
                0x2040a510        0x4
 .bss.rx_messageID
                0x2040a510        0x4 build/sam_v71_xult/production/_ext/1360937237/tarea_principal.o

.bss.xTAREA_Can%42
                0x2040a514        0x4
 .bss.xTAREA_Can
                0x2040a514        0x4 build/sam_v71_xult/production/_ext/1360937237/tarea_principal.o
                0x2040a514                xTAREA_Can

.bss.xTAREA_Can1%43
                0x2040a518        0x4
 .bss.xTAREA_Can1
                0x2040a518        0x4 build/sam_v71_xult/production/_ext/1360937237/tarea_principal.o
                0x2040a518                xTAREA_Can1

.bss.xTAREA_Can2%44
                0x2040a51c        0x4
 .bss.xTAREA_Can2
                0x2040a51c        0x4 build/sam_v71_xult/production/_ext/1360937237/tarea_principal.o
                0x2040a51c                xTAREA_Can2

.bss.xferContext%45
                0x2040a520        0x4
 .bss.xferContext
                0x2040a520        0x4 build/sam_v71_xult/production/_ext/1563530619/mcan_fd_interrupt.o

.bss.Semaforo_uart%46
                0x2040a524        0x4
 .bss.Semaforo_uart
                0x2040a524        0x4 build/sam_v71_xult/production/_ext/1522961716/Uart1_FreeRTOS.o

.bss.dataRxSemaphore%47
                0x2040a528        0x4
 .bss.dataRxSemaphore
                0x2040a528        0x4 build/sam_v71_xult/production/_ext/1522961716/Uart1_FreeRTOS.o

.bss.xTAREA_UART_Tasks%48
                0x2040a52c        0x4
 .bss.xTAREA_UART_Tasks
                0x2040a52c        0x4 build/sam_v71_xult/production/_ext/1522961716/Uart1_FreeRTOS.o
                0x2040a52c                xTAREA_UART_Tasks

.bss%49         0x2040a530        0xc
 .bss           0x2040a530        0x4 c:/program files/microchip/xc32/v4.00/bin/bin/../../lib/gcc/pic32c/8.3.1/../../../../pic32c/lib/thumb/v7e-m+dp/hard\libpic32c.a(data_init.o)
 .bss           0x2040a534        0x4 c:/program files/microchip/xc32/v4.00/bin/bin/../../lib/gcc/pic32c/8.3.1/../../../../pic32c/lib/thumb/v7e-m+dp/hard\libc-musl.a(__environ.o)
                0x2040a534                __environ
                0x2040a534                environ
                0x2040a534                ___environ
                0x2040a534                _environ
 .bss           0x2040a538        0x4 c:/program files/microchip/xc32/v4.00/bin/bin/../../lib/gcc/pic32c/8.3.1/../../../../pic32c/lib/thumb/v7e-m+dp/hard\libc-musl.a(__errno_location.o)
                0x2040a538                __errno_val

.bss.tarea_uartData%52
                0x2040a53c        0x1
 .bss.tarea_uartData
                0x2040a53c        0x1 build/sam_v71_xult/production/_ext/1522961716/Uart1_FreeRTOS.o
                0x2040a53c                tarea_uartData

.bss.timestamp%53
                0x2040a53e        0x2
 .bss.timestamp
                0x2040a53e        0x2 build/sam_v71_xult/production/_ext/1360937237/tarea_principal.o

.bss.tarea_principalData%54
                0x2040a540        0x1
 .bss.tarea_principalData
                0x2040a540        0x1 build/sam_v71_xult/production/_ext/1360937237/tarea_principal.o
                0x2040a540                tarea_principalData

.bss.messageMarker.8204%55
                0x2040a53d        0x1
 .bss.messageMarker.8204
                0x2040a53d        0x1 build/sam_v71_xult/production/_ext/1537669298/plib_mcan1.o

.bss.estado.9609%56
                0x2040a541        0x1
 .bss.estado.9609
                0x2040a541        0x1 build/sam_v71_xult/production/_ext/1360937237/tarea_principal.o

.bss.msgFrameAttr%57
                0x2040a542        0x1
 .bss.msgFrameAttr
                0x2040a542        0x1 build/sam_v71_xult/production/_ext/1360937237/tarea_principal.o

.bss.rx_messageLength%58
                0x2040a543        0x1
 .bss.rx_messageLength
                0x2040a543        0x1 build/sam_v71_xult/production/_ext/1360937237/tarea_principal.o

.data.state%59  0x2040a544        0x1
 .data.state    0x2040a544        0x1 build/sam_v71_xult/production/_ext/1563530619/mcan_fd_interrupt.o

.data.readByte%60
                0x2040a545        0x1
 .data.readByte
                0x2040a545        0x1 build/sam_v71_xult/production/_ext/1522961716/Uart1_FreeRTOS.o
                0x2040a545                readByte

.eh_frame%z1    0x00000000        0x0
 .eh_frame      0x00000000        0x0 c:/program files/microchip/xc32/v4.00/bin/bin/../../lib/gcc/pic32c/8.3.1/thumb/v7e-m+dp/hard/crtbegin.o

.config_D0000000.__config_D0000000%61
                0xd0000000        0x4
 .config_D0000000.__config_D0000000
                0xd0000000        0x4 build/sam_v71_xult/production/_ext/1320227943/initialization.o
                0xd0000000                __config_D0000000

.dinit%62       0x00400190      0x430
 .dinit         0x00400190      0x430 data_init

.text.MCAN1_INT0_InterruptHandler%63
                0x004005c0      0x3bc
 .text.MCAN1_INT0_InterruptHandler
                0x004005c0      0x3bc build/sam_v71_xult/production/_ext/1537669298/plib_mcan1.o
                0x004005c0                MCAN1_INT0_InterruptHandler

.text.__printf_core%64
                0x0040097c      0x2f4
 .text.__printf_core
                0x0040097c      0x2f4 c:/program files/microchip/xc32/v4.00/bin/bin/../../lib/gcc/pic32c/8.3.1/../../../../pic32c/lib/thumb/v7e-m+dp/hard\libc-musl.a(__printf_core.o)
                0x0040097c                __printf_core

.text%65        0x00400c70      0x2d0
 .text          0x00400c70      0x2d0 c:/program files/microchip/xc32/v4.00/bin/bin/../../lib/gcc/pic32c/8.3.1/thumb/v7e-m+dp/hard\libgcc.a(_udivmoddi4.o)
                0x00400c70                __udivmoddi4

.text.xTaskCreate%66
                0x00400f40      0x1d8
 .text.xTaskCreate
                0x00400f40      0x1d8 build/sam_v71_xult/production/_ext/404212886/FreeRTOS_tasks.o
                0x00400f40                xTaskCreate

.text.USART1_InterruptHandler%67
                0x00401118      0x17c
 .text.USART1_InterruptHandler
                0x00401118      0x17c build/sam_v71_xult/production/_ext/415242918/plib_usart1.o
                0x00401118                USART1_InterruptHandler

.text.Reset_Handler%68
                0x00401294      0x17c
 .text.Reset_Handler
                0x00401294      0x17c build/sam_v71_xult/production/_ext/1320227943/startup_xc32.o
                0x00401294                Reset_Handler

.text.xQueueSemaphoreTake%69
                0x00401410      0x158
 .text.xQueueSemaphoreTake
                0x00401410      0x158 build/sam_v71_xult/production/_ext/404212886/queue.o
                0x00401410                xQueueSemaphoreTake

.text.xQueueGenericSend%70
                0x00401568      0x128
 .text.xQueueGenericSend
                0x00401568      0x128 build/sam_v71_xult/production/_ext/404212886/queue.o
                0x00401568                xQueueGenericSend

.rodata%71      0x00401690      0x124
 .rodata        0x00401690      0x124 build/sam_v71_xult/production/_ext/1360937237/tarea_principal.o

.text.__fmt_x%72
                0x004017b4      0x124
 .text.__fmt_x  0x004017b4      0x124 c:/program files/microchip/xc32/v4.00/bin/bin/../../lib/gcc/pic32c/8.3.1/../../../../pic32c/lib/thumb/v7e-m+dp/hard\libc-musl.a(__fmt_x.o)
                0x004017b4                __fmt_x_needed
                0x004017b4                __fmt_x

.text.TAREA_PRINCIPAL_Tasks%73
                0x004018d8      0x120
 .text.TAREA_PRINCIPAL_Tasks
                0x004018d8      0x120 build/sam_v71_xult/production/_ext/1360937237/tarea_principal.o
                0x004018d8                TAREA_PRINCIPAL_Tasks

.text.MCAN1_MessageTransmit%74
                0x004019f8      0x114
 .text.MCAN1_MessageTransmit
                0x004019f8      0x114 build/sam_v71_xult/production/_ext/1537669298/plib_mcan1.o
                0x004019f8                MCAN1_MessageTransmit

.text.xTaskIncrementTick%75
                0x00401b0c      0x114
 .text.xTaskIncrementTick
                0x00401b0c      0x114 build/sam_v71_xult/production/_ext/404212886/FreeRTOS_tasks.o
                0x00401b0c                xTaskIncrementTick

.text.MCAN1_MessageRAMConfigSet%76
                0x00401c20      0x10c
 .text.MCAN1_MessageRAMConfigSet
                0x00401c20      0x10c build/sam_v71_xult/production/_ext/1537669298/plib_mcan1.o
                0x00401c20                MCAN1_MessageRAMConfigSet

.text.xTaskResumeAll%77
                0x00401d2c       0xe4
 .text.xTaskResumeAll
                0x00401d2c       0xe4 build/sam_v71_xult/production/_ext/404212886/FreeRTOS_tasks.o
                0x00401d2c                xTaskResumeAll

.text.MCAN1_MessageReceive%78
                0x00401e10       0xd0
 .text.MCAN1_MessageReceive
                0x00401e10       0xd0 build/sam_v71_xult/production/_ext/1537669298/plib_mcan1.o
                0x00401e10                MCAN1_MessageReceive

.text.PIO_Initialize%79
                0x00401ee0       0xd0
 .text.PIO_Initialize
                0x00401ee0       0xd0 build/sam_v71_xult/production/_ext/1157977813/plib_pio.o
                0x00401ee0                PIO_Initialize

.text.vTaskDelete%80
                0x00401fb0       0xcc
 .text.vTaskDelete
                0x00401fb0       0xcc build/sam_v71_xult/production/_ext/404212886/FreeRTOS_tasks.o
                0x00401fb0                vTaskDelete

.text.TAREA_Can%81
                0x0040207c       0xc0
 .text.TAREA_Can
                0x0040207c       0xc0 build/sam_v71_xult/production/_ext/1360937237/tarea_principal.o
                0x0040207c                TAREA_Can

.text.xTaskPriorityInherit%82
                0x0040213c       0xa8
 .text.xTaskPriorityInherit
                0x0040213c       0xa8 build/sam_v71_xult/production/_ext/404212886/FreeRTOS_tasks.o
                0x0040213c                xTaskPriorityInherit

.text.__fmt_d%83
                0x004021e4       0xa8
 .text.__fmt_d  0x004021e4       0xa8 c:/program files/microchip/xc32/v4.00/bin/bin/../../lib/gcc/pic32c/8.3.1/../../../../pic32c/lib/thumb/v7e-m+dp/hard\libc-musl.a(__fmt_d.o)
                0x004021e4                __fmt_d
                0x004021e4                __fmt_d_needed

.text.MCAN1_Initialize%84
                0x0040228c       0xa4
 .text.MCAN1_Initialize
                0x0040228c       0xa4 build/sam_v71_xult/production/_ext/1537669298/plib_mcan1.o
                0x0040228c                MCAN1_Initialize

.text.USART1_Write%85
                0x00402330       0xa4
 .text.USART1_Write
                0x00402330       0xa4 build/sam_v71_xult/production/_ext/415242918/plib_usart1.o
                0x00402330                USART1_Write

.text.__pop_int%86
                0x004023d4       0xa0
 .text.__pop_int
                0x004023d4       0xa0 c:/program files/microchip/xc32/v4.00/bin/bin/../../lib/gcc/pic32c/8.3.1/../../../../pic32c/lib/thumb/v7e-m+dp/hard\libc-musl.a(__pop_int.o)
                0x004023d4                __pop_int_needed
                0x004023d4                __pop_int

.text.prvAddCurrentTaskToDelayedList%87
                0x00402474       0x94
 .text.prvAddCurrentTaskToDelayedList
                0x00402474       0x94 build/sam_v71_xult/production/_ext/404212886/FreeRTOS_tasks.o

.text.vTaskSwitchContext%88
                0x00402508       0x90
 .text.vTaskSwitchContext
                0x00402508       0x90 build/sam_v71_xult/production/_ext/404212886/FreeRTOS_tasks.o
                0x00402508                vTaskSwitchContext

.text.CLOCK_Initialize%89
                0x00402598       0x8c
 .text.CLOCK_Initialize
                0x00402598       0x8c build/sam_v71_xult/production/_ext/1157990217/plib_clk.o
                0x00402598                CLOCK_Initialize

.text.__pic32c_data_initialization%90
                0x00402624       0x88
 .text.__pic32c_data_initialization
                0x00402624       0x88 c:/program files/microchip/xc32/v4.00/bin/bin/../../lib/gcc/pic32c/8.3.1/../../../../pic32c/lib/thumb/v7e-m+dp/hard\libpic32c.a(data_init.o)
                0x00402624                __pic32c_data_initialization

.text.vTaskPriorityDisinheritAfterTimeout%91
                0x004026ac       0x80
 .text.vTaskPriorityDisinheritAfterTimeout
                0x004026ac       0x80 build/sam_v71_xult/production/_ext/404212886/FreeRTOS_tasks.o
                0x004026ac                vTaskPriorityDisinheritAfterTimeout

.text.prvUnlockQueue%92
                0x0040272c       0x7e
 .text.prvUnlockQueue
                0x0040272c       0x7e build/sam_v71_xult/production/_ext/404212886/queue.o

.text.__pad%93  0x004027aa       0x7e
 .text.__pad    0x004027aa       0x7e c:/program files/microchip/xc32/v4.00/bin/bin/../../lib/gcc/pic32c/8.3.1/../../../../pic32c/lib/thumb/v7e-m+dp/hard\libc-musl.a(__printf_core.o)
                0x004027aa                __pad

.text.xTaskPriorityDisinherit%94
                0x00402828       0x7c
 .text.xTaskPriorityDisinherit
                0x00402828       0x7c build/sam_v71_xult/production/_ext/404212886/FreeRTOS_tasks.o
                0x00402828                xTaskPriorityDisinherit

.text.TAREA_Can2%95
                0x004028a4       0x7c
 .text.TAREA_Can2
                0x004028a4       0x7c build/sam_v71_xult/production/_ext/1360937237/tarea_principal.o
                0x004028a4                TAREA_Can2

.text.__pop_ptr%96
                0x00402920       0x7c
 .text.__pop_ptr
                0x00402920       0x7c c:/program files/microchip/xc32/v4.00/bin/bin/../../lib/gcc/pic32c/8.3.1/../../../../pic32c/lib/thumb/v7e-m+dp/hard\libc-musl.a(__pop_ptr.o)
                0x00402920                __pop_ptr
                0x00402920                __pop_ptr_needed

.text.xTaskRemoveFromEventList%97
                0x0040299c       0x78
 .text.xTaskRemoveFromEventList
                0x0040299c       0x78 build/sam_v71_xult/production/_ext/404212886/FreeRTOS_tasks.o
                0x0040299c                xTaskRemoveFromEventList

.text.TAREA_Can1%98
                0x00402a14       0x78
 .text.TAREA_Can1
                0x00402a14       0x78 build/sam_v71_xult/production/_ext/1360937237/tarea_principal.o
                0x00402a14                TAREA_Can1

.text.__cvt_u%99
                0x00402a8c       0x78
 .text.__cvt_u  0x00402a8c       0x78 c:/program files/microchip/xc32/v4.00/bin/bin/../../lib/gcc/pic32c/8.3.1/../../../../pic32c/lib/thumb/v7e-m+dp/hard\libc-musl.a(__fmt_u.o)
                0x00402a8c                __cvt_u

.text.prvCopyDataToQueue%100
                0x00402b04       0x72
 .text.prvCopyDataToQueue
                0x00402b04       0x72 build/sam_v71_xult/production/_ext/404212886/queue.o

.text.__fmt_o%101
                0x00402b76       0x72
 .text.__fmt_o  0x00402b76       0x72 c:/program files/microchip/xc32/v4.00/bin/bin/../../lib/gcc/pic32c/8.3.1/../../../../pic32c/lib/thumb/v7e-m+dp/hard\libc-musl.a(__fmt_o.o)
                0x00402b76                __fmt_o
                0x00402b76                __fmt_o_needed

.text.xQueueGenericReset%102
                0x00402be8       0x70
 .text.xQueueGenericReset
                0x00402be8       0x70 build/sam_v71_xult/production/_ext/404212886/queue.o
                0x00402be8                xQueueGenericReset

.text.prvIdleTask%103
                0x00402c58       0x70
 .text.prvIdleTask
                0x00402c58       0x70 build/sam_v71_xult/production/_ext/404212886/FreeRTOS_tasks.o

.text.vTaskStartScheduler%104
                0x00402cc8       0x68
 .text.vTaskStartScheduler
                0x00402cc8       0x68 build/sam_v71_xult/production/_ext/404212886/FreeRTOS_tasks.o
                0x00402cc8                vTaskStartScheduler

.text.xPortPendSVHandler%105
                0x00402d30       0x64
 .text.xPortPendSVHandler
                0x00402d30       0x64 build/sam_v71_xult/production/_ext/977623654/port.o
                0x00402d30                xPortPendSVHandler

.text.xQueueGiveFromISR%106
                0x00402d94       0x64
 .text.xQueueGiveFromISR
                0x00402d94       0x64 build/sam_v71_xult/production/_ext/404212886/queue.o
                0x00402d94                xQueueGiveFromISR

.text.TAREA_UART_Tasks%107
                0x00402df8       0x60
 .text.TAREA_UART_Tasks
                0x00402df8       0x60 build/sam_v71_xult/production/_ext/1522961716/Uart1_FreeRTOS.o
                0x00402df8                TAREA_UART_Tasks

.text.USART1_Initialize%108
                0x00402e58       0x5c
 .text.USART1_Initialize
                0x00402e58       0x5c build/sam_v71_xult/production/_ext/415242918/plib_usart1.o
                0x00402e58                USART1_Initialize

.text.pvPortMalloc%109
                0x00402eb4       0x5c
 .text.pvPortMalloc
                0x00402eb4       0x5c build/sam_v71_xult/production/_ext/1665200909/heap_1.o
                0x00402eb4                pvPortMalloc

.text.xTaskCheckForTimeOut%110
                0x00402f10       0x5c
 .text.xTaskCheckForTimeOut
                0x00402f10       0x5c build/sam_v71_xult/production/_ext/404212886/FreeRTOS_tasks.o
                0x00402f10                xTaskCheckForTimeOut

.text.__libc_start_init%111
                0x00402f6c       0x5c
 .text.__libc_start_init
                0x00402f6c       0x5c c:/program files/microchip/xc32/v4.00/bin/bin/../../lib/gcc/pic32c/8.3.1/../../../../pic32c/lib/thumb/v7e-m+dp/hard\libc-musl.a(__libc_start_main.o)
                0x00402f6c                __libc_init_array

.text.USART1_Read%112
                0x00402fc8       0x58
 .text.USART1_Read
                0x00402fc8       0x58 build/sam_v71_xult/production/_ext/415242918/plib_usart1.o
                0x00402fc8                USART1_Read

.text.__fmt_s%113
                0x00403020       0x58
 .text.__fmt_s  0x00403020       0x58 c:/program files/microchip/xc32/v4.00/bin/bin/../../lib/gcc/pic32c/8.3.1/../../../../pic32c/lib/thumb/v7e-m+dp/hard\libc-musl.a(__fmt_s.o)
                0x00403020                __fmt_s
                0x00403020                __fmt_0_needed
                0x00403020                __fmt_s_needed

.text.__fmt_u%114
                0x00403078       0x56
 .text.__fmt_u  0x00403078       0x56 c:/program files/microchip/xc32/v4.00/bin/bin/../../lib/gcc/pic32c/8.3.1/../../../../pic32c/lib/thumb/v7e-m+dp/hard\libc-musl.a(__fmt_u.o)
                0x00403078                __fmt_u_needed
                0x00403078                __fmt_u

.text.mcan_fd_interrupt_recibir%115
                0x004030d0       0x54
 .text.mcan_fd_interrupt_recibir
                0x004030d0       0x54 build/sam_v71_xult/production/_ext/1563530619/mcan_fd_interrupt.o
                0x004030d0                mcan_fd_interrupt_recibir

.text.Uart1_FreeRTOS_Config%116
                0x00403124       0x54
 .text.Uart1_FreeRTOS_Config
                0x00403124       0x54 build/sam_v71_xult/production/_ext/1522961716/Uart1_FreeRTOS.o
                0x00403124                Uart1_FreeRTOS_Config

.text.__vsnprintf%117
                0x00403178       0x50
 .text.__vsnprintf
                0x00403178       0x50 c:/program files/microchip/xc32/v4.00/bin/bin/../../lib/gcc/pic32c/8.3.1/../../../../pic32c/lib/thumb/v7e-m+dp/hard\libc-musl.a(__int_vsnprintf.o)
                0x00403178                __vsnprintf

.text.xPortStartScheduler%118
                0x004031c8       0x48
 .text.xPortStartScheduler
                0x004031c8       0x48 build/sam_v71_xult/production/_ext/977623654/port.o
                0x004031c8                xPortStartScheduler

.text.mcan_fd_interrupt_enviar%119
                0x00403210       0x48
 .text.mcan_fd_interrupt_enviar
                0x00403210       0x48 build/sam_v71_xult/production/_ext/1563530619/mcan_fd_interrupt.o
                0x00403210                mcan_fd_interrupt_enviar

.text.atoi%120  0x00403258       0x46
 .text.atoi     0x00403258       0x46 c:/program files/microchip/xc32/v4.00/bin/bin/../../lib/gcc/pic32c/8.3.1/../../../../pic32c/lib/thumb/v7e-m+dp/hard\libc-musl.a(atoi.o)
                0x00403258                atoi

.text%121       0x004032a0       0x40
 .text          0x004032a0       0x40 c:/program files/microchip/xc32/v4.00/bin/bin/../../lib/gcc/pic32c/8.3.1/thumb/v7e-m+dp/hard/crtbegin.o

.text.NVIC_Initialize%122
                0x004032e0       0x40
 .text.NVIC_Initialize
                0x004032e0       0x40 build/sam_v71_xult/production/_ext/1537621011/plib_nvic.o
                0x004032e0                NVIC_Initialize

.text.Resultado%123
                0x00403320       0x3c
 .text.Resultado
                0x00403320       0x3c build/sam_v71_xult/production/_ext/1563530619/mcan_fd_interrupt.o
                0x00403320                Resultado

.text.Uart1_println%124
                0x0040335c       0x3c
 .text.Uart1_println
                0x0040335c       0x3c build/sam_v71_xult/production/_ext/1522961716/Uart1_FreeRTOS.o
                0x0040335c                Uart1_println

.text.MCAN1_ErrorGet%125
                0x00403398       0x38
 .text.MCAN1_ErrorGet
                0x00403398       0x38 build/sam_v71_xult/production/_ext/1537669298/plib_mcan1.o
                0x00403398                MCAN1_ErrorGet

.text.MPU_Initialize%126
                0x004033d0       0x38
 .text.MPU_Initialize
                0x004033d0       0x38 build/sam_v71_xult/production/_ext/1157980473/plib_mpu.o
                0x004033d0                MPU_Initialize

.text.__fmt_state%127
                0x00403408       0x38
 .text.__fmt_state
                0x00403408       0x38 c:/program files/microchip/xc32/v4.00/bin/bin/../../lib/gcc/pic32c/8.3.1/../../../../pic32c/lib/thumb/v7e-m+dp/hard\libc-musl.a(__printf_core.o)
                0x00403408                __fmt_state

.text.vListInsert%128
                0x00403440       0x34
 .text.vListInsert
                0x00403440       0x34 build/sam_v71_xult/production/_ext/404212886/list.o
                0x00403440                vListInsert

.text.vTaskDelay%129
                0x00403474       0x34
 .text.vTaskDelay
                0x00403474       0x34 build/sam_v71_xult/production/_ext/404212886/FreeRTOS_tasks.o
                0x00403474                vTaskDelay

.text.APP_MCAN_Callback%130
                0x004034a8       0x34
 .text.APP_MCAN_Callback
                0x004034a8       0x34 build/sam_v71_xult/production/_ext/1563530619/mcan_fd_interrupt.o
                0x004034a8                APP_MCAN_Callback

.text.uartReadEventHandler%131
                0x004034dc       0x34
 .text.uartReadEventHandler
                0x004034dc       0x34 build/sam_v71_xult/production/_ext/1522961716/Uart1_FreeRTOS.o
                0x004034dc                uartReadEventHandler

.rodata%132     0x00403510       0x34
 .rodata        0x00403510       0x34 build/sam_v71_xult/production/_ext/1522961716/Uart1_FreeRTOS.o

.text.SYS_Initialize%133
                0x00403544       0x30
 .text.SYS_Initialize
                0x00403544       0x30 build/sam_v71_xult/production/_ext/1320227943/initialization.o
                0x00403544                SYS_Initialize

.text.SYS_Tasks%134
                0x00403574       0x30
 .text.SYS_Tasks
                0x00403574       0x30 build/sam_v71_xult/production/_ext/1320227943/tasks.o
                0x00403574                SYS_Tasks

.text.xPortSysTickHandler%135
                0x004035a4       0x30
 .text.xPortSysTickHandler
                0x004035a4       0x30 build/sam_v71_xult/production/_ext/977623654/port.o
                0x004035a4                xPortSysTickHandler

.text.xQueueGenericCreate%136
                0x004035d4       0x30
 .text.xQueueGenericCreate
                0x004035d4       0x30 build/sam_v71_xult/production/_ext/404212886/queue.o
                0x004035d4                xQueueGenericCreate

.text.TAREA_PRINCIPAL_Initialize%137
                0x00403604       0x30
 .text.TAREA_PRINCIPAL_Initialize
                0x00403604       0x30 build/sam_v71_xult/production/_ext/1360937237/tarea_principal.o
                0x00403604                TAREA_PRINCIPAL_Initialize

.text.Uart1_print%138
                0x00403634       0x30
 .text.Uart1_print
                0x00403634       0x30 build/sam_v71_xult/production/_ext/1522961716/Uart1_FreeRTOS.o
                0x00403634                Uart1_print

.text%139       0x00403664       0x30
 .text          0x00403664       0x30 c:/program files/microchip/xc32/v4.00/bin/bin/../../lib/gcc/pic32c/8.3.1/thumb/v7e-m+dp/hard\libgcc.a(_aeabi_uldivmod.o)
                0x00403664                __aeabi_uldivmod

.text.pxPortInitialiseStack%140
                0x00403694       0x2c
 .text.pxPortInitialiseStack
                0x00403694       0x2c build/sam_v71_xult/production/_ext/977623654/port.o
                0x00403694                pxPortInitialiseStack

.text.prvResetNextTaskUnblockTime%141
                0x004036c0       0x2c
 .text.prvResetNextTaskUnblockTime
                0x004036c0       0x2c build/sam_v71_xult/production/_ext/404212886/FreeRTOS_tasks.o

.text.__pop_float%142
                0x004036ec       0x2a
 .text.__pop_float
                0x004036ec       0x2a c:/program files/microchip/xc32/v4.00/bin/bin/../../lib/gcc/pic32c/8.3.1/../../../../pic32c/lib/thumb/v7e-m+dp/hard\libc-musl.a(__pop_float.o)
                0x004036ec                __pop_float_needed
                0x004036ec                __pop_float

.text.prvPortStartFirstTask%143
                0x00403718       0x28
 .text.prvPortStartFirstTask
                0x00403718       0x28 build/sam_v71_xult/production/_ext/977623654/port.o

.text.vPortSetupTimerInterrupt%144
                0x00403740       0x28
 .text.vPortSetupTimerInterrupt
                0x00403740       0x28 build/sam_v71_xult/production/_ext/977623654/port.o
                0x00403740                vPortSetupTimerInterrupt

.text.uxListRemove%145
                0x00403768       0x26
 .text.uxListRemove
                0x00403768       0x26 build/sam_v71_xult/production/_ext/404212886/list.o
                0x00403768                uxListRemove

.text.__string_out%146
                0x0040378e       0x26
 .text.__string_out
                0x0040378e       0x26 c:/program files/microchip/xc32/v4.00/bin/bin/../../lib/gcc/pic32c/8.3.1/../../../../pic32c/lib/thumb/v7e-m+dp/hard\libc-musl.a(__printf_core.o)
                0x0040378e                __out

.text.MCANDlcToLengthGet%147
                0x004037b4       0x24
 .text.MCANDlcToLengthGet
                0x004037b4       0x24 build/sam_v71_xult/production/_ext/1537669298/plib_mcan1.o

.text.prvTaskExitError%148
                0x004037d8       0x24
 .text.prvTaskExitError
                0x004037d8       0x24 build/sam_v71_xult/production/_ext/977623654/port.o

.text.vPortSVCHandler%149
                0x00403800       0x24
 .text.vPortSVCHandler
                0x00403800       0x24 build/sam_v71_xult/production/_ext/977623654/port.o
                0x00403800                vPortSVCHandler

.text.vPortEnterCritical%150
                0x00403824       0x24
 .text.vPortEnterCritical
                0x00403824       0x24 build/sam_v71_xult/production/_ext/977623654/port.o
                0x00403824                vPortEnterCritical

.text.xQueueCreateMutex%151
                0x00403848       0x24
 .text.xQueueCreateMutex
                0x00403848       0x24 build/sam_v71_xult/production/_ext/404212886/queue.o
                0x00403848                xQueueCreateMutex

.text.MCAN1_RxCallbackRegister%152
                0x0040386c       0x1c
 .text.MCAN1_RxCallbackRegister
                0x0040386c       0x1c build/sam_v71_xult/production/_ext/1537669298/plib_mcan1.o
                0x0040386c                MCAN1_RxCallbackRegister

.text.USART1_WritePendingBytesGet%153
                0x00403888       0x1c
 .text.USART1_WritePendingBytesGet
                0x00403888       0x1c build/sam_v71_xult/production/_ext/415242918/plib_usart1.o

.text.USART1_ReadCountGet%154
                0x004038a4       0x1c
 .text.USART1_ReadCountGet
                0x004038a4       0x1c build/sam_v71_xult/production/_ext/415242918/plib_usart1.o
                0x004038a4                USART1_ReadCountGet

.text.vTaskPlaceOnEventList%155
                0x004038c0       0x1c
 .text.vTaskPlaceOnEventList
                0x004038c0       0x1c build/sam_v71_xult/production/_ext/404212886/FreeRTOS_tasks.o
                0x004038c0                vTaskPlaceOnEventList

.text.pvTaskIncrementMutexHeldCount%156
                0x004038dc       0x1c
 .text.pvTaskIncrementMutexHeldCount
                0x004038dc       0x1c build/sam_v71_xult/production/_ext/404212886/FreeRTOS_tasks.o
                0x004038dc                pvTaskIncrementMutexHeldCount

.rodata%157     0x004038f8       0x1c
 .rodata        0x004038f8       0x1c c:/program files/microchip/xc32/v4.00/bin/bin/../../lib/gcc/pic32c/8.3.1/../../../../pic32c/lib/thumb/v7e-m+dp/hard\libc-musl.a(__printf_core.o)

.text.__vfprintf%158
                0x00403914       0x1c
 .text.__vfprintf
                0x00403914       0x1c c:/program files/microchip/xc32/v4.00/bin/bin/../../lib/gcc/pic32c/8.3.1/../../../../pic32c/lib/thumb/v7e-m+dp/hard\libc-musl.a(__int_vfprintf.o)
                0x00403914                __vfprintf

.text.__wrap_sprintf%159
                0x00403930       0x1a
 .text.__wrap_sprintf
                0x00403930       0x1a c:/program files/microchip/xc32/v4.00/bin/bin/../../lib/gcc/pic32c/8.3.1/../../../../pic32c/lib/thumb/v7e-m+dp/hard\libc-musl.a(__sio_sprintf_doux.o)
                0x00403930                _dsprintf_cdnopuxX
                0x00403930                _sprintf_cdnopuxX
                0x00403930                __sprintf_oxX
                0x00403930                __sprintf_u

.text.USART1_ReadNotificationEnable%160
                0x0040394c       0x18
 .text.USART1_ReadNotificationEnable
                0x0040394c       0x18 build/sam_v71_xult/production/_ext/415242918/plib_usart1.o
                0x0040394c                USART1_ReadNotificationEnable

.rodata%161     0x00403964       0x18
 .rodata        0x00403964       0x18 build/sam_v71_xult/production/_ext/1320227943/tasks.o

.text.vTaskInternalSetTimeOutState%162
                0x0040397c       0x18
 .text.vTaskInternalSetTimeOutState
                0x0040397c       0x18 build/sam_v71_xult/production/_ext/404212886/FreeRTOS_tasks.o
                0x0040397c                vTaskInternalSetTimeOutState

.text.vApplicationStackOverflowHook%163
                0x00403994       0x16
 .text.vApplicationStackOverflowHook
                0x00403994       0x16 build/sam_v71_xult/production/_ext/1320227943/freertos_hooks.o
                0x00403994                vApplicationStackOverflowHook

.text.vListInitialise%164
                0x004039aa       0x16
 .text.vListInitialise
                0x004039aa       0x16 build/sam_v71_xult/production/_ext/404212886/list.o
                0x004039aa                vListInitialise

.text.vListInsertEnd%165
                0x004039c0       0x16
 .text.vListInsertEnd
                0x004039c0       0x16 build/sam_v71_xult/production/_ext/404212886/list.o
                0x004039c0                vListInsertEnd

.text.prvIsQueueEmpty%166
                0x004039d6       0x16
 .text.prvIsQueueEmpty
                0x004039d6       0x16 build/sam_v71_xult/production/_ext/404212886/queue.o

.text.memcpy%167
                0x004039ec       0x16
 .text.memcpy   0x004039ec       0x16 c:/program files/microchip/xc32/v4.00/bin/bin/../../lib/gcc/pic32c/8.3.1/../../../../pic32c/lib/thumb/v7e-m+dp/hard\libc-musl.a(memcpy.o)
                0x004039ec                memcpy

.text.USART1_WriteFreeBufferCountGet%168
                0x00403a04       0x14
 .text.USART1_WriteFreeBufferCountGet
                0x00403a04       0x14 build/sam_v71_xult/production/_ext/415242918/plib_usart1.o
                0x00403a04                USART1_WriteFreeBufferCountGet

.text.vPortEnableVFP%169
                0x00403a18       0x14
 .text.vPortEnableVFP
                0x00403a18       0x14 build/sam_v71_xult/production/_ext/977623654/port.o

.text.vPortExitCritical%170
                0x00403a2c       0x14
 .text.vPortExitCritical
                0x00403a2c       0x14 build/sam_v71_xult/production/_ext/977623654/port.o
                0x00403a2c                vPortExitCritical

.text.EFC_Initialize%171
                0x00403a40       0x10
 .text.EFC_Initialize
                0x00403a40       0x10 build/sam_v71_xult/production/_ext/1157988489/plib_efc.o
                0x00403a40                EFC_Initialize

.text.MCAN1_TxCallbackRegister%172
                0x00403a50       0x10
 .text.MCAN1_TxCallbackRegister
                0x00403a50       0x10 build/sam_v71_xult/production/_ext/1537669298/plib_mcan1.o
                0x00403a50                MCAN1_TxCallbackRegister

.rodata%173     0x00403a60       0x10
 .rodata        0x00403a60       0x10 build/sam_v71_xult/production/_ext/1537669298/plib_mcan1.o

.rodata.mcan1ExtFilter%174
                0x00403a70       0x10
 .rodata.mcan1ExtFilter
                0x00403a70       0x10 build/sam_v71_xult/production/_ext/1537669298/plib_mcan1.o

.text.vTaskSuspendAll%175
                0x00403a80       0x10
 .text.vTaskSuspendAll
                0x00403a80       0x10 build/sam_v71_xult/production/_ext/404212886/FreeRTOS_tasks.o
                0x00403a80                vTaskSuspendAll

.text.Uart1_Recibir%176
                0x00403a90       0x10
 .text.Uart1_Recibir
                0x00403a90       0x10 build/sam_v71_xult/production/_ext/1522961716/Uart1_FreeRTOS.o
                0x00403a90                Uart1_Recibir

.text.memset%177
                0x00403aa0       0x10
 .text.memset   0x00403aa0       0x10 c:/program files/microchip/xc32/v4.00/bin/bin/../../lib/gcc/pic32c/8.3.1/../../../../pic32c/lib/thumb/v7e-m+dp/hard\libc-musl.a(memset.o)
                0x00403aa0                memset

.text.strlen%178
                0x00403ab0       0x10
 .text.strlen   0x00403ab0       0x10 c:/program files/microchip/xc32/v4.00/bin/bin/../../lib/gcc/pic32c/8.3.1/../../../../pic32c/lib/thumb/v7e-m+dp/hard\libc-musl.a(strlen.o)
                0x00403ab0                strlen

.text.main%179  0x00403ac0        0xe
 .text.main     0x00403ac0        0xe build/sam_v71_xult/production/_ext/1360937237/main_v71.o
                0x00403ac0                main

.text.tolower%180
                0x00403ace        0xe
 .text.tolower  0x00403ace        0xe c:/program files/microchip/xc32/v4.00/bin/bin/../../lib/gcc/pic32c/8.3.1/../../../../pic32c/lib/thumb/v7e-m+dp/hard\libc-musl.a(tolower.o)
                0x00403ace                tolower

.text.toupper%181
                0x00403adc        0xe
 .text.toupper  0x00403adc        0xe c:/program files/microchip/xc32/v4.00/bin/bin/../../lib/gcc/pic32c/8.3.1/../../../../pic32c/lib/thumb/v7e-m+dp/hard\libc-musl.a(toupper.o)
                0x00403adc                toupper

.text.USART1_ReadThresholdSet%182
                0x00403aec        0xc
 .text.USART1_ReadThresholdSet
                0x00403aec        0xc build/sam_v71_xult/production/_ext/415242918/plib_usart1.o
                0x00403aec                USART1_ReadThresholdSet

.text.USART1_ReadCallbackRegister%183
                0x00403af8        0xc
 .text.USART1_ReadCallbackRegister
                0x00403af8        0xc build/sam_v71_xult/production/_ext/415242918/plib_usart1.o
                0x00403af8                USART1_ReadCallbackRegister

.text.vTaskMissedYield%184
                0x00403b04        0xc
 .text.vTaskMissedYield
                0x00403b04        0xc build/sam_v71_xult/production/_ext/404212886/FreeRTOS_tasks.o
                0x00403b04                vTaskMissedYield

.text.mcan_fd_interrupt_habilitar%185
                0x00403b10        0xc
 .text.mcan_fd_interrupt_habilitar
                0x00403b10        0xc build/sam_v71_xult/production/_ext/1563530619/mcan_fd_interrupt.o
                0x00403b10                mcan_fd_interrupt_habilitar

.text.__vsprintf%186
                0x00403b1c        0xc
 .text.__vsprintf
                0x00403b1c        0xc c:/program files/microchip/xc32/v4.00/bin/bin/../../lib/gcc/pic32c/8.3.1/../../../../pic32c/lib/thumb/v7e-m+dp/hard\libc-musl.a(__int_vsprintf.o)
                0x00403b1c                __vsprintf

.rodata.mcan1StdFilter%187
                0x00403b28        0x8
 .rodata.mcan1StdFilter
                0x00403b28        0x8 build/sam_v71_xult/production/_ext/1537669298/plib_mcan1.o

.text._TAREA_PRINCIPAL_Tasks%188
                0x00403b30        0x8
 .text._TAREA_PRINCIPAL_Tasks
                0x00403b30        0x8 build/sam_v71_xult/production/_ext/1320227943/tasks.o
                0x00403b30                _TAREA_PRINCIPAL_Tasks

.rodata%189     0x00403b38        0x8
 .rodata        0x00403b38        0x8 build/sam_v71_xult/production/_ext/404212886/FreeRTOS_tasks.o

.text.mcan_fd_interrupt_config%190
                0x00403b40        0x8
 .text.mcan_fd_interrupt_config
                0x00403b40        0x8 build/sam_v71_xult/production/_ext/1563530619/mcan_fd_interrupt.o
                0x00403b40                mcan_fd_interrupt_config

.rodata%191     0x00403b48        0x7
 .rodata        0x00403b48        0x7 c:/program files/microchip/xc32/v4.00/bin/bin/../../lib/gcc/pic32c/8.3.1/../../../../pic32c/lib/thumb/v7e-m+dp/hard\libc-musl.a(__fmt_s.o)

.text.vListInitialiseItem%192
                0x00403b50        0x6
 .text.vListInitialiseItem
                0x00403b50        0x6 build/sam_v71_xult/production/_ext/404212886/list.o
                0x00403b50                vListInitialiseItem

.text.__dummy_fmt4%193
                0x004037fc        0x4
 .text.__dummy_fmt4
                0x004037fc        0x4 c:/program files/microchip/xc32/v4.00/bin/bin/../../lib/gcc/pic32c/8.3.1/../../../../pic32c/lib/thumb/v7e-m+dp/hard\libc-musl.a(__printf_core.o)
                0x004037fc                __fmt_fp
                0x004037fc                __fmt_a

.text%194       0x00403b58        0x4
 .text          0x00403b58        0x4 c:/program files/microchip/xc32/v4.00/bin/bin/../../lib/gcc/pic32c/8.3.1/thumb/v7e-m+dp/hard\libgcc.a(_dvmd_tls.o)
                0x00403b58                __aeabi_idiv0
                0x00403b58                __aeabi_ldiv0

.text.Dummy_Handler%195
                0x004030ce        0x2
 .text.Dummy_Handler
                0x004030ce        0x2 build/sam_v71_xult/production/_ext/1320227943/interrupts.o
                0x004030ce                DACC_Handler
                0x004030ce                TC0_CH2_Handler
                0x004030ce                TC3_CH1_Handler
                0x004030ce                UART3_Handler
                0x004030ce                UART2_Handler
                0x004030ce                TRNG_Handler
                0x004030ce                AFEC1_Handler
                0x004030ce                TC0_CH1_Handler
                0x004030ce                QSPI_Handler
                0x004030ce                ISI_Handler
                0x004030ce                MCAN0_INT0_Handler
                0x004030ce                RSWDT_Handler
                0x004030ce                USART0_Handler
                0x004030ce                TC1_CH2_Handler
                0x004030ce                RTT_Handler
                0x004030ce                USBHS_Handler
                0x004030ce                IXC_Handler
                0x004030ce                CCF_Handler
                0x004030ce                PIOB_Handler
                0x004030ce                RTC_Handler
                0x004030ce                WDT_Handler
                0x004030ce                MCAN1_INT1_Handler
                0x004030ce                HSMCI_Handler
                0x004030ce                UART1_Handler
                0x004030ce                Dummy_Handler
                0x004030ce                TWIHS1_Handler
                0x004030ce                TC3_CH2_Handler
                0x004030ce                XDMAC_Handler
                0x004030ce                UART4_Handler
                0x004030ce                TC2_CH0_Handler
                0x004030ce                PWM1_Handler
                0x004030ce                PWM0_Handler
                0x004030ce                PIOA_Handler
                0x004030ce                AFEC0_Handler
                0x004030ce                CCW_Handler
                0x004030ce                TC3_CH0_Handler
                0x004030ce                SSC_Handler
                0x004030ce                TC1_CH0_Handler
                0x004030ce                ACC_Handler
                0x004030ce                PMC_Handler
                0x004030ce                GMAC_Handler
                0x004030ce                TC2_CH2_Handler
                0x004030ce                MCAN0_INT1_Handler
                0x004030ce                GMAC_Q5_Handler
                0x004030ce                SUPC_Handler
                0x004030ce                TC2_CH1_Handler
                0x004030ce                EFC_Handler
                0x004030ce                GMAC_Q1_Handler
                0x004030ce                USART2_Handler
                0x004030ce                SDRAMC_Handler
                0x004030ce                GMAC_Q2_Handler
                0x004030ce                PIOE_Handler
                0x004030ce                SPI1_Handler
                0x004030ce                TC1_CH1_Handler
                0x004030ce                GMAC_Q3_Handler
                0x004030ce                PIOD_Handler
                0x004030ce                TWIHS2_Handler
                0x004030ce                MLB_Handler
                0x004030ce                I2SC0_Handler
                0x004030ce                UART0_Handler
                0x004030ce                I2SC1_Handler
                0x004030ce                TC0_CH0_Handler
                0x004030ce                PIOC_Handler
                0x004030ce                GMAC_Q4_Handler
                0x004030ce                FPU_Handler
                0x004030ce                RSTC_Handler
                0x004030ce                ICM_Handler
                0x004030ce                AES_Handler
                0x004030ce                TWIHS0_Handler
                0x004030ce                SPI0_Handler

.text.NonMaskableInt_Handler%196
                0x0040329e        0x2
 .text.NonMaskableInt_Handler
                0x0040329e        0x2 build/sam_v71_xult/production/_ext/1320227943/exceptions.o
                0x0040329e                NonMaskableInt_Handler

.text.HardFault_Handler%197
                0x00403716        0x2
 .text.HardFault_Handler
                0x00403716        0x2 build/sam_v71_xult/production/_ext/1320227943/exceptions.o
                0x00403716                HardFault_Handler

.text.DebugMonitor_Handler%198
                0x0040394a        0x2
 .text.DebugMonitor_Handler
                0x0040394a        0x2 build/sam_v71_xult/production/_ext/1320227943/exceptions.o
                0x0040394a                DebugMonitor_Handler

.text.MemoryManagement_Handler%199
                0x00403a02        0x2
 .text.MemoryManagement_Handler
                0x00403a02        0x2 build/sam_v71_xult/production/_ext/1320227943/exceptions.o
                0x00403a02                MemoryManagement_Handler

.text.BusFault_Handler%200
                0x00403aea        0x2
 .text.BusFault_Handler
                0x00403aea        0x2 build/sam_v71_xult/production/_ext/1320227943/exceptions.o
                0x00403aea                BusFault_Handler

.text.UsageFault_Handler%201
                0x00403b56        0x2
 .text.UsageFault_Handler
                0x00403b56        0x2 build/sam_v71_xult/production/_ext/1320227943/exceptions.o
                0x00403b56                UsageFault_Handler

.text.Dummy_App_Func%202
                0x00403b5c        0x2
 .text.Dummy_App_Func
                0x00403b5c        0x2 build/sam_v71_xult/production/_ext/1320227943/startup_xc32.o
                0x00403b5c                _on_reset
                0x00403b5c                _on_bootstrap
                0x00403b5c                __xc32_on_reset
                0x00403b5c                Dummy_App_Func
                0x00403b5c                __xc32_on_bootstrap

.text.vPortFree%203
                0x00403b5e        0x2
 .text.vPortFree
                0x00403b5e        0x2 build/sam_v71_xult/production/_ext/1665200909/heap_1.o
                0x00403b5e                vPortFree

.text.__dummy%204
                0x00403b60        0x2
 .text.__dummy  0x00403b60        0x2 c:/program files/microchip/xc32/v4.00/bin/bin/../../lib/gcc/pic32c/8.3.1/../../../../pic32c/lib/thumb/v7e-m+dp/hard\libc-musl.a(__libc_start_main.o)
                0x00403b60                __init_stdio
                0x00403b60                __init_host
